Component: ARM Compiler 5.06 update 6 (build 750) Tool: armlink [4d35ed]

==============================================================================

Section Cross References

    main.o(i.APP_Start) refers to ipc.o(i.rt_sem_create) for rt_sem_create
    main.o(i.APP_Start) refers to ipc.o(i.rt_mb_create) for rt_mb_create
    main.o(i.APP_Start) refers to thread.o(i.rt_thread_init) for rt_thread_init
    main.o(i.APP_Start) refers to thread.o(i.rt_thread_startup) for rt_thread_startup
    main.o(i.APP_Start) refers to app.o(.data) for BC28_Respond
    main.o(i.APP_Start) refers to app.o(.data) for CD100M_RECV
    main.o(i.APP_Start) refers to usart.o(.data) for g_mail_data
    main.o(i.APP_Start) refers to app.o(.bss) for th3_stack
    main.o(i.APP_Start) refers to app.o(i.CD100M_INFO) for CD100M_INFO
    main.o(i.APP_Start) refers to app.o(.bss) for th3
    main.o(i.main) refers to misc.o(i.NVIC_PriorityGroupConfig) for NVIC_PriorityGroupConfig
    main.o(i.main) refers to usart.o(i.usart_init) for usart_init
    main.o(i.main) refers to usart.o(i.uart2_init) for uart2_init
    main.o(i.main) refers to thread.o(i.rt_thread_create) for rt_thread_create
    main.o(i.main) refers to thread.o(i.rt_thread_startup) for rt_thread_startup
    main.o(i.main) refers to main.o(i.APP_Start) for APP_Start
    main.o(i.main) refers to main.o(.data) for .data
    app.o(i.CD100M_CLEAR) refers to ipc.o(i.rt_mb_recv) for rt_mb_recv
    app.o(i.CD100M_CLEAR) refers to kservice.o(i.rt_kprintf) for rt_kprintf
    app.o(i.CD100M_CLEAR) refers to scheduler.o(i.rt_enter_critical) for rt_enter_critical
    app.o(i.CD100M_CLEAR) refers to cd100m.o(i.CD100M_uart_decode) for CD100M_uart_decode
    app.o(i.CD100M_CLEAR) refers to scheduler.o(i.rt_exit_critical) for rt_exit_critical
    app.o(i.CD100M_CLEAR) refers to usart.o(.data) for g_mail_data
    app.o(i.CD100M_CLEAR) refers to cd100m.o(.data) for g_CD100M_paras
    app.o(i.CD100M_CLEAR) refers to cd100m.o(.bss) for g_CD100M_dbg_info
    app.o(i.CD100M_CLEAR) refers to cd100m.o(.bss) for g_CD100M_res_info
    app.o(i.CD100M_INFO) refers to usart.o(i.uart2_send) for uart2_send
    app.o(i.CD100M_INFO) refers to delay.o(i.delay_ms) for delay_ms
    app.o(i.CD100M_INFO) refers to scheduler.o(i.rt_enter_critical) for rt_enter_critical
    app.o(i.CD100M_INFO) refers to scheduler.o(i.rt_exit_critical) for rt_exit_critical
    app.o(i.CD100M_INFO) refers to kservice.o(i.rt_kprintf) for rt_kprintf
    app.o(i.CD100M_INFO) refers to app.o(.data) for .data
    app.o(i.CD100M_INFO) refers to cd100m.o(.data) for g_uart_sta
    app.o(i.CD100M_INFO) refers to cd100m.o(.bss) for g_CD100M_res_info
    app.o(i.MQTT_INIT) refers to bc28.o(i.BC28_Init) for BC28_Init
    app.o(i.MQTT_INIT) refers to kservice.o(i.rt_kprintf) for rt_kprintf
    app.o(i.MQTT_INIT) refers to bc28.o(i.MQTT_Init) for MQTT_Init
    app.o(i.MQTT_INIT) refers to thread.o(i.rt_thread_mdelay) for rt_thread_mdelay
    app.o(i.MQTT_INIT) refers to thread.o(i.rt_thread_startup) for rt_thread_startup
    app.o(i.MQTT_INIT) refers to thread.o(i.rt_thread_suspend) for rt_thread_suspend
    app.o(i.MQTT_INIT) refers to app.o(.data) for .data
    app.o(i.MQTT_INIT) refers to app.o(.bss) for .bss
    app.o(i.MQTT_PUB_DATA) refers to thread.o(i.rt_thread_mdelay) for rt_thread_mdelay
    app.o(i.MQTT_PUB_DATA) refers to user_defined.o(i.JSON_Upper) for JSON_Upper
    app.o(i.MQTT_PUB_DATA) refers to strlen.o(.text) for strlen
    app.o(i.MQTT_PUB_DATA) refers to kservice.o(i.rt_kprintf) for rt_kprintf
    app.o(i.MQTT_PUB_DATA) refers to bc28.o(i.MQTT_PUB) for MQTT_PUB
    app.o(i.MQTT_PUB_DATA) refers to app.o(.data) for .data
    app.o(i.MQTT_PUB_DATA) refers to user_defined.o(.bss) for Json_Buf
    drv_bc28.o(i.BC28_SEND_DATA) refers to vsnprintf.o(.text) for vsnprintf
    drv_bc28.o(i.BC28_SEND_DATA) refers to strlen.o(.text) for strlen
    drv_bc28.o(i.BC28_SEND_DATA) refers to usart.o(i.USART3_Send_Data) for USART3_Send_Data
    drv_bc28.o(i.BC28_SEND_DATA) refers to drv_bc28.o(.bss) for .bss
    drv_bc28.o(i.bc28_callback) refers to ipc.o(i.rt_sem_release) for rt_sem_release
    drv_bc28.o(i.bc28_callback) refers to bc28.o(.data) for BC28_RX_FLAG
    drv_bc28.o(i.bc28_callback) refers to bc28.o(.data) for BC28_RX_DATA_LEN
    drv_bc28.o(i.bc28_callback) refers to app.o(.data) for BC28_Respond
    user_defined.o(i.JSON_Upper) refers to _printf_percent.o(.ARM.Collect$$_printf_percent$$00000000) for _printf_percent
    user_defined.o(i.JSON_Upper) refers to _printf_f.o(.ARM.Collect$$_printf_percent$$00000003) for _printf_f
    user_defined.o(i.JSON_Upper) refers to _printf_s.o(.ARM.Collect$$_printf_percent$$00000014) for _printf_s
    user_defined.o(i.JSON_Upper) refers to printf1.o(x$fpl$printf1) for _printf_fp_dec
    user_defined.o(i.JSON_Upper) refers to _printf_str.o(.text) for _printf_str
    user_defined.o(i.JSON_Upper) refers to rt_memclr.o(.text) for __aeabi_memclr
    user_defined.o(i.JSON_Upper) refers to strncpy.o(.text) for strncpy
    user_defined.o(i.JSON_Upper) refers to f2d.o(x$fpl$f2d) for __aeabi_f2d
    user_defined.o(i.JSON_Upper) refers to __2sprintf.o(.text) for __2sprintf
    user_defined.o(i.JSON_Upper) refers to strcat.o(.text) for strcat
    user_defined.o(i.JSON_Upper) refers to user_defined.o(.bss) for .bss
    user_defined.o(i.JSON_Upper) refers to hx711_1.o(.data) for Weight_Shiwu
    drv_hx711.o(i.get_waterweight) refers to hx711_1.o(i.Get_Weight) for Get_Weight
    drv_hx711.o(i.get_waterweight) refers to hx711_1.o(.data) for Weight_Shiwu
    led.o(i.LED_Init) refers to stm32f4xx_rcc.o(i.RCC_AHB1PeriphClockCmd) for RCC_AHB1PeriphClockCmd
    led.o(i.LED_Init) refers to stm32f4xx_gpio.o(i.GPIO_Init) for GPIO_Init
    led.o(i.LED_Init) refers to stm32f4xx_gpio.o(i.GPIO_SetBits) for GPIO_SetBits
    cd100m.o(i.CD100M_clr_cup_status) refers to cd100m.o(i.write_cmd_wait) for write_cmd_wait
    cd100m.o(i.CD100M_clr_cup_status) refers to cd100m.o(.data) for .data
    cd100m.o(i.CD100M_dbg_auto_dis) refers to cd100m.o(i.write_cmd_wait) for write_cmd_wait
    cd100m.o(i.CD100M_dbg_auto_dis) refers to cd100m.o(.data) for .data
    cd100m.o(i.CD100M_dbg_auto_en) refers to cd100m.o(i.write_cmd_wait) for write_cmd_wait
    cd100m.o(i.CD100M_dbg_auto_en) refers to cd100m.o(.data) for .data
    cd100m.o(i.CD100M_get_cup_status) refers to cd100m.o(i.write_cmd_wait) for write_cmd_wait
    cd100m.o(i.CD100M_get_cup_status) refers to cd100m.o(.data) for .data
    cd100m.o(i.CD100M_get_debuge_info) refers to cd100m.o(i.write_cmd_wait) for write_cmd_wait
    cd100m.o(i.CD100M_get_debuge_info) refers to cd100m.o(.data) for .data
    cd100m.o(i.CD100M_get_detect_paras) refers to cd100m.o(i.write_cmd_wait) for write_cmd_wait
    cd100m.o(i.CD100M_get_detect_paras) refers to cd100m.o(.data) for .data
    cd100m.o(i.CD100M_get_id) refers to cd100m.o(i.write_cmd_wait) for write_cmd_wait
    cd100m.o(i.CD100M_get_id) refers to cd100m.o(.data) for .data
    cd100m.o(i.CD100M_get_xtalk) refers to cd100m.o(i.write_cmd_wait) for write_cmd_wait
    cd100m.o(i.CD100M_get_xtalk) refers to cd100m.o(.data) for .data
    cd100m.o(i.CD100M_hot_start) refers to cd100m.o(i.write_cmd_wait) for write_cmd_wait
    cd100m.o(i.CD100M_hot_start) refers to cd100m.o(.data) for .data
    cd100m.o(i.CD100M_hot_stop) refers to cd100m.o(i.write_cmd_wait) for write_cmd_wait
    cd100m.o(i.CD100M_hot_stop) refers to cd100m.o(.data) for .data
    cd100m.o(i.CD100M_init) refers to cd100m.o(i.write_cmd_wait) for write_cmd_wait
    cd100m.o(i.CD100M_init) refers to cd100m.o(.data) for .data
    cd100m.o(i.CD100M_set_baud) refers to usart.o(i.uart2_send) for uart2_send
    cd100m.o(i.CD100M_set_baud) refers to usart.o(i.uart2_init) for uart2_init
    cd100m.o(i.CD100M_set_baud) refers to delay.o(i.delay_ms) for delay_ms
    cd100m.o(i.CD100M_set_baud) refers to cd100m.o(.data) for .data
    cd100m.o(i.CD100M_set_baud) refers to cd100m.o(.bss) for .bss
    cd100m.o(i.CD100M_set_full_cup_cnt) refers to cd100m.o(i.write_cmd_wait) for write_cmd_wait
    cd100m.o(i.CD100M_set_full_cup_cnt) refers to cd100m.o(.data) for .data
    cd100m.o(i.CD100M_set_get_cup_cnt) refers to cd100m.o(i.write_cmd_wait) for write_cmd_wait
    cd100m.o(i.CD100M_set_get_cup_cnt) refers to cd100m.o(.data) for .data
    cd100m.o(i.CD100M_set_no_cup_cnt) refers to cd100m.o(i.write_cmd_wait) for write_cmd_wait
    cd100m.o(i.CD100M_set_no_cup_cnt) refers to cd100m.o(.data) for .data
    cd100m.o(i.CD100M_set_platform_dis) refers to cd100m.o(i.write_cmd_wait) for write_cmd_wait
    cd100m.o(i.CD100M_set_platform_dis) refers to cd100m.o(.data) for .data
    cd100m.o(i.CD100M_set_pre_full_cnt) refers to cd100m.o(i.write_cmd_wait) for write_cmd_wait
    cd100m.o(i.CD100M_set_pre_full_cnt) refers to cd100m.o(.data) for .data
    cd100m.o(i.CD100M_set_remain_thr) refers to cd100m.o(i.write_cmd_wait) for write_cmd_wait
    cd100m.o(i.CD100M_set_remain_thr) refers to cd100m.o(.data) for .data
    cd100m.o(i.CD100M_set_tof1_obj1_edge) refers to cd100m.o(i.write_cmd_wait) for write_cmd_wait
    cd100m.o(i.CD100M_set_tof1_obj1_edge) refers to cd100m.o(.data) for .data
    cd100m.o(i.CD100M_set_tof2_obj1_edge) refers to cd100m.o(i.write_cmd_wait) for write_cmd_wait
    cd100m.o(i.CD100M_set_tof2_obj1_edge) refers to cd100m.o(.data) for .data
    cd100m.o(i.CD100M_set_tof2_obj1_water) refers to cd100m.o(i.write_cmd_wait) for write_cmd_wait
    cd100m.o(i.CD100M_set_tof2_obj1_water) refers to cd100m.o(.data) for .data
    cd100m.o(i.CD100M_set_water_status) refers to cd100m.o(i.write_cmd_wait) for write_cmd_wait
    cd100m.o(i.CD100M_set_water_status) refers to cd100m.o(.data) for .data
    cd100m.o(i.CD100M_set_work_max_dis) refers to cd100m.o(i.write_cmd_wait) for write_cmd_wait
    cd100m.o(i.CD100M_set_work_max_dis) refers to cd100m.o(.data) for .data
    cd100m.o(i.CD100M_sta_auto_dis) refers to cd100m.o(i.write_cmd_wait) for write_cmd_wait
    cd100m.o(i.CD100M_sta_auto_dis) refers to cd100m.o(.data) for .data
    cd100m.o(i.CD100M_sta_auto_en) refers to cd100m.o(i.write_cmd_wait) for write_cmd_wait
    cd100m.o(i.CD100M_sta_auto_en) refers to cd100m.o(.data) for .data
    cd100m.o(i.CD100M_start) refers to cd100m.o(i.write_cmd_wait) for write_cmd_wait
    cd100m.o(i.CD100M_start) refers to cd100m.o(.data) for .data
    cd100m.o(i.CD100M_stop) refers to cd100m.o(i.write_cmd_wait) for write_cmd_wait
    cd100m.o(i.CD100M_stop) refers to cd100m.o(.data) for .data
    cd100m.o(i.CD100M_uart_decode) refers to kservice.o(i.rt_kprintf) for rt_kprintf
    cd100m.o(i.CD100M_uart_decode) refers to cd100m.o(.data) for .data
    cd100m.o(i.CD100M_uart_decode) refers to cd100m.o(.bss) for .bss
    cd100m.o(i.write_cmd_wait) refers to scheduler.o(i.rt_enter_critical) for rt_enter_critical
    cd100m.o(i.write_cmd_wait) refers to usart.o(i.uart2_send) for uart2_send
    cd100m.o(i.write_cmd_wait) refers to scheduler.o(i.rt_exit_critical) for rt_exit_critical
    cd100m.o(i.write_cmd_wait) refers to delay.o(i.delay_ms) for delay_ms
    cd100m.o(i.write_cmd_wait) refers to cd100m.o(.data) for .data
    cd100m.o(i.write_cmd_wait) refers to cd100m.o(.bss) for .bss
    hx711_1.o(i.Get_Maopi) refers to hx711_1.o(i.HX711_Read) for HX711_Read
    hx711_1.o(i.Get_Maopi) refers to hx711_1.o(.data) for .data
    hx711_1.o(i.Get_Weight) refers to hx711_1.o(i.HX711_Read) for HX711_Read
    hx711_1.o(i.Get_Weight) refers to hx711_1.o(.data) for .data
    hx711_1.o(i.HX711_Read) refers to delay.o(i.delay_us) for delay_us
    hx711_1.o(i.Init_Hx711) refers to stm32f4xx_rcc.o(i.RCC_AHB1PeriphClockCmd) for RCC_AHB1PeriphClockCmd
    hx711_1.o(i.Init_Hx711) refers to stm32f4xx_gpio.o(i.GPIO_Init) for GPIO_Init
    hx711_1.o(i.digitalRead) refers to stm32f4xx_gpio.o(i.GPIO_ReadInputDataBit) for GPIO_ReadInputDataBit
    hx711_1.o(i.digitalWrite) refers to stm32f4xx_gpio.o(i.GPIO_ResetBits) for GPIO_ResetBits
    hx711_1.o(i.digitalWrite) refers to stm32f4xx_gpio.o(i.GPIO_SetBits) for GPIO_SetBits
    bc28.o(i.BC28_Init) refers to kservice.o(i.rt_kprintf) for rt_kprintf
    bc28.o(i.BC28_Init) refers to bc28.o(i.BC28_Send_Check) for BC28_Send_Check
    bc28.o(i.BC28_Reply) refers to ipc.o(i.rt_sem_take) for rt_sem_take
    bc28.o(i.BC28_Reply) refers to strstr.o(.text) for strstr
    bc28.o(i.BC28_Reply) refers to app.o(.data) for BC28_Respond
    bc28.o(i.BC28_Reply) refers to bc28.o(.bss) for .bss
    bc28.o(i.BC28_Send_Check) refers to rt_memclr.o(.text) for __aeabi_memclr
    bc28.o(i.BC28_Send_Check) refers to drv_bc28.o(i.BC28_SEND_DATA) for BC28_SEND_DATA
    bc28.o(i.BC28_Send_Check) refers to bc28.o(i.BC28_Reply) for BC28_Reply
    bc28.o(i.BC28_Send_Check) refers to bc28.o(.bss) for .bss
    bc28.o(i.MQTT_Init) refers to _printf_percent.o(.ARM.Collect$$_printf_percent$$00000000) for _printf_percent
    bc28.o(i.MQTT_Init) refers to _printf_s.o(.ARM.Collect$$_printf_percent$$00000014) for _printf_s
    bc28.o(i.MQTT_Init) refers to _printf_str.o(.text) for _printf_str
    bc28.o(i.MQTT_Init) refers to kservice.o(i.rt_kprintf) for rt_kprintf
    bc28.o(i.MQTT_Init) refers to rt_memclr_w.o(.text) for __aeabi_memclr4
    bc28.o(i.MQTT_Init) refers to __2sprintf.o(.text) for __2sprintf
    bc28.o(i.MQTT_Init) refers to bc28.o(i.BC28_Send_Check) for BC28_Send_Check
    bc28.o(i.MQTT_Init) refers to thread.o(i.rt_thread_mdelay) for rt_thread_mdelay
    bc28.o(i.MQTT_PUB) refers to _printf_percent.o(.ARM.Collect$$_printf_percent$$00000000) for _printf_percent
    bc28.o(i.MQTT_PUB) refers to _printf_s.o(.ARM.Collect$$_printf_percent$$00000014) for _printf_s
    bc28.o(i.MQTT_PUB) refers to _printf_str.o(.text) for _printf_str
    bc28.o(i.MQTT_PUB) refers to __2sprintf.o(.text) for __2sprintf
    bc28.o(i.MQTT_PUB) refers to bc28.o(i.BC28_Send_Check) for BC28_Send_Check
    bc28.o(i.MQTT_PUB) refers to drv_bc28.o(i.BC28_SEND_DATA) for BC28_SEND_DATA
    bc28.o(i.MQTT_PUB) refers to thread.o(i.rt_thread_mdelay) for rt_thread_mdelay
    bc28.o(i.MQTT_PUB) refers to bc28.o(i.BC28_Reply) for BC28_Reply
    usart.o(i.USART1_IRQHandler) refers to stm32f4xx_usart.o(i.USART_GetITStatus) for USART_GetITStatus
    usart.o(i.USART1_IRQHandler) refers to stm32f4xx_usart.o(i.USART_ClearITPendingBit) for USART_ClearITPendingBit
    usart.o(i.USART2_IRQHandler) refers to stm32f4xx_usart.o(i.USART_GetITStatus) for USART_GetITStatus
    usart.o(i.USART2_IRQHandler) refers to stm32f4xx_usart.o(i.USART_ClearITPendingBit) for USART_ClearITPendingBit
    usart.o(i.USART2_IRQHandler) refers to stm32f4xx_usart.o(i.USART_ReceiveData) for USART_ReceiveData
    usart.o(i.USART2_IRQHandler) refers to stm32f4xx_usart.o(i.USART_SendData) for USART_SendData
    usart.o(i.USART2_IRQHandler) refers to kservice.o(i.rt_kprintf) for rt_kprintf
    usart.o(i.USART2_IRQHandler) refers to cd100m.o(i.CD100M_uart_decode) for CD100M_uart_decode
    usart.o(i.USART2_IRQHandler) refers to usart.o(.data) for .data
    usart.o(i.USART2_IRQHandler) refers to cd100m.o(.data) for g_CD100M_paras
    usart.o(i.USART2_IRQHandler) refers to cd100m.o(.bss) for g_CD100M_dbg_info
    usart.o(i.USART2_IRQHandler) refers to cd100m.o(.bss) for g_CD100M_res_info
    usart.o(i.USART3_IRQHandler) refers to stm32f4xx_usart.o(i.USART_GetITStatus) for USART_GetITStatus
    usart.o(i.USART3_IRQHandler) refers to stm32f4xx_usart.o(i.USART_ClearITPendingBit) for USART_ClearITPendingBit
    usart.o(i.USART3_IRQHandler) refers to stm32f4xx_usart.o(i.USART_ReceiveData) for USART_ReceiveData
    usart.o(i.USART3_IRQHandler) refers to timer.o(i.rt_timer_start) for rt_timer_start
    usart.o(i.USART3_IRQHandler) refers to bc28.o(.data) for BC28_RX_FLAG
    usart.o(i.USART3_IRQHandler) refers to drv_bc28.o(.bss) for bc28_10ms
    usart.o(i.USART3_IRQHandler) refers to bc28.o(.bss) for BC28_RX_BUF
    usart.o(i.USART3_IRQHandler) refers to bc28.o(.data) for BC28_RX_DATA_LEN
    usart.o(i.USART3_Send_Data) refers to stm32f4xx_usart.o(i.USART_GetFlagStatus) for USART_GetFlagStatus
    usart.o(i.USART3_Send_Data) refers to stm32f4xx_usart.o(i.USART_SendData) for USART_SendData
    usart.o(i.uart2_init) refers to stm32f4xx_rcc.o(i.RCC_AHB1PeriphClockCmd) for RCC_AHB1PeriphClockCmd
    usart.o(i.uart2_init) refers to stm32f4xx_rcc.o(i.RCC_APB1PeriphClockCmd) for RCC_APB1PeriphClockCmd
    usart.o(i.uart2_init) refers to stm32f4xx_gpio.o(i.GPIO_Init) for GPIO_Init
    usart.o(i.uart2_init) refers to stm32f4xx_gpio.o(i.GPIO_PinAFConfig) for GPIO_PinAFConfig
    usart.o(i.uart2_init) refers to stm32f4xx_usart.o(i.USART_Init) for USART_Init
    usart.o(i.uart2_init) refers to stm32f4xx_usart.o(i.USART_ITConfig) for USART_ITConfig
    usart.o(i.uart2_init) refers to misc.o(i.NVIC_Init) for NVIC_Init
    usart.o(i.uart2_init) refers to stm32f4xx_usart.o(i.USART_Cmd) for USART_Cmd
    usart.o(i.uart2_init) refers to usart.o(.data) for .data
    usart.o(i.uart2_init) refers to usart.o(.bss) for .bss
    usart.o(i.uart2_send) refers to stm32f4xx_usart.o(i.USART_GetFlagStatus) for USART_GetFlagStatus
    usart.o(i.uart2_send) refers to stm32f4xx_usart.o(i.USART_SendData) for USART_SendData
    usart.o(i.uart2_send) refers to delay.o(i.delay_ms) for delay_ms
    usart.o(i.uart3_init) refers to stm32f4xx_rcc.o(i.RCC_AHB1PeriphClockCmd) for RCC_AHB1PeriphClockCmd
    usart.o(i.uart3_init) refers to stm32f4xx_rcc.o(i.RCC_APB1PeriphClockCmd) for RCC_APB1PeriphClockCmd
    usart.o(i.uart3_init) refers to stm32f4xx_gpio.o(i.GPIO_Init) for GPIO_Init
    usart.o(i.uart3_init) refers to stm32f4xx_gpio.o(i.GPIO_PinAFConfig) for GPIO_PinAFConfig
    usart.o(i.uart3_init) refers to stm32f4xx_usart.o(i.USART_Init) for USART_Init
    usart.o(i.uart3_init) refers to stm32f4xx_usart.o(i.USART_ITConfig) for USART_ITConfig
    usart.o(i.uart3_init) refers to misc.o(i.NVIC_Init) for NVIC_Init
    usart.o(i.uart3_init) refers to stm32f4xx_usart.o(i.USART_Cmd) for USART_Cmd
    usart.o(i.uart3_init) refers to usart.o(.data) for .data
    usart.o(i.uart3_init) refers to usart.o(.bss) for .bss
    usart.o(i.usart_init) refers to stm32f4xx_rcc.o(i.RCC_AHB1PeriphClockCmd) for RCC_AHB1PeriphClockCmd
    usart.o(i.usart_init) refers to stm32f4xx_rcc.o(i.RCC_APB2PeriphClockCmd) for RCC_APB2PeriphClockCmd
    usart.o(i.usart_init) refers to stm32f4xx_gpio.o(i.GPIO_Init) for GPIO_Init
    usart.o(i.usart_init) refers to stm32f4xx_gpio.o(i.GPIO_PinAFConfig) for GPIO_PinAFConfig
    usart.o(i.usart_init) refers to stm32f4xx_usart.o(i.USART_Init) for USART_Init
    usart.o(i.usart_init) refers to stm32f4xx_usart.o(i.USART_ITConfig) for USART_ITConfig
    usart.o(i.usart_init) refers to misc.o(i.NVIC_Init) for NVIC_Init
    usart.o(i.usart_init) refers to stm32f4xx_usart.o(i.USART_Cmd) for USART_Cmd
    usart.o(i.usart_init) refers to usart.o(.data) for .data
    usart.o(i.usart_init) refers to usart.o(.bss) for .bss
    stm32f4xx_gpio.o(i.GPIO_DeInit) refers to stm32f4xx_rcc.o(i.RCC_AHB1PeriphResetCmd) for RCC_AHB1PeriphResetCmd
    stm32f4xx_rcc.o(i.RCC_GetClocksFreq) refers to stm32f4xx_rcc.o(.data) for .data
    stm32f4xx_rcc.o(i.RCC_WaitForHSEStartUp) refers to stm32f4xx_rcc.o(i.RCC_GetFlagStatus) for RCC_GetFlagStatus
    stm32f4xx_syscfg.o(i.SYSCFG_DeInit) refers to stm32f4xx_rcc.o(i.RCC_APB2PeriphResetCmd) for RCC_APB2PeriphResetCmd
    stm32f4xx_tim.o(i.TIM_DeInit) refers to stm32f4xx_rcc.o(i.RCC_APB2PeriphResetCmd) for RCC_APB2PeriphResetCmd
    stm32f4xx_tim.o(i.TIM_DeInit) refers to stm32f4xx_rcc.o(i.RCC_APB1PeriphResetCmd) for RCC_APB1PeriphResetCmd
    stm32f4xx_tim.o(i.TIM_ETRClockMode1Config) refers to stm32f4xx_tim.o(i.TIM_ETRConfig) for TIM_ETRConfig
    stm32f4xx_tim.o(i.TIM_ETRClockMode2Config) refers to stm32f4xx_tim.o(i.TIM_ETRConfig) for TIM_ETRConfig
    stm32f4xx_tim.o(i.TIM_ICInit) refers to stm32f4xx_tim.o(i.TIM_SetIC4Prescaler) for TIM_SetIC4Prescaler
    stm32f4xx_tim.o(i.TIM_ICInit) refers to stm32f4xx_tim.o(i.TI1_Config) for TI1_Config
    stm32f4xx_tim.o(i.TIM_ICInit) refers to stm32f4xx_tim.o(i.TIM_SetIC1Prescaler) for TIM_SetIC1Prescaler
    stm32f4xx_tim.o(i.TIM_ICInit) refers to stm32f4xx_tim.o(i.TI2_Config) for TI2_Config
    stm32f4xx_tim.o(i.TIM_ICInit) refers to stm32f4xx_tim.o(i.TIM_SetIC2Prescaler) for TIM_SetIC2Prescaler
    stm32f4xx_tim.o(i.TIM_ICInit) refers to stm32f4xx_tim.o(i.TIM_SetIC3Prescaler) for TIM_SetIC3Prescaler
    stm32f4xx_tim.o(i.TIM_ITRxExternalClockConfig) refers to stm32f4xx_tim.o(i.TIM_SelectInputTrigger) for TIM_SelectInputTrigger
    stm32f4xx_tim.o(i.TIM_PWMIConfig) refers to stm32f4xx_tim.o(i.TI2_Config) for TI2_Config
    stm32f4xx_tim.o(i.TIM_PWMIConfig) refers to stm32f4xx_tim.o(i.TIM_SetIC2Prescaler) for TIM_SetIC2Prescaler
    stm32f4xx_tim.o(i.TIM_PWMIConfig) refers to stm32f4xx_tim.o(i.TI1_Config) for TI1_Config
    stm32f4xx_tim.o(i.TIM_PWMIConfig) refers to stm32f4xx_tim.o(i.TIM_SetIC1Prescaler) for TIM_SetIC1Prescaler
    stm32f4xx_tim.o(i.TIM_TIxExternalClockConfig) refers to stm32f4xx_tim.o(i.TI1_Config) for TI1_Config
    stm32f4xx_tim.o(i.TIM_TIxExternalClockConfig) refers to stm32f4xx_tim.o(i.TIM_SelectInputTrigger) for TIM_SelectInputTrigger
    stm32f4xx_tim.o(i.TIM_TIxExternalClockConfig) refers to stm32f4xx_tim.o(i.TI2_Config) for TI2_Config
    stm32f4xx_usart.o(i.USART_DeInit) refers to stm32f4xx_rcc.o(i.RCC_APB2PeriphResetCmd) for RCC_APB2PeriphResetCmd
    stm32f4xx_usart.o(i.USART_DeInit) refers to stm32f4xx_rcc.o(i.RCC_APB1PeriphResetCmd) for RCC_APB1PeriphResetCmd
    stm32f4xx_usart.o(i.USART_Init) refers to stm32f4xx_rcc.o(i.RCC_GetClocksFreq) for RCC_GetClocksFreq
    startup_stm32f40_41xxx.o(STACK) refers (Special) to heapauxi.o(.text) for __use_two_region_memory
    startup_stm32f40_41xxx.o(HEAP) refers (Special) to heapauxi.o(.text) for __use_two_region_memory
    startup_stm32f40_41xxx.o(RESET) refers (Special) to heapauxi.o(.text) for __use_two_region_memory
    startup_stm32f40_41xxx.o(RESET) refers to startup_stm32f40_41xxx.o(STACK) for __initial_sp
    startup_stm32f40_41xxx.o(RESET) refers to startup_stm32f40_41xxx.o(.text) for Reset_Handler
    startup_stm32f40_41xxx.o(RESET) refers to context_rvds.o(.text) for HardFault_Handler
    startup_stm32f40_41xxx.o(RESET) refers to usart.o(i.USART1_IRQHandler) for USART1_IRQHandler
    startup_stm32f40_41xxx.o(RESET) refers to usart.o(i.USART2_IRQHandler) for USART2_IRQHandler
    startup_stm32f40_41xxx.o(RESET) refers to usart.o(i.USART3_IRQHandler) for USART3_IRQHandler
    startup_stm32f40_41xxx.o(.text) refers (Special) to heapauxi.o(.text) for __use_two_region_memory
    startup_stm32f40_41xxx.o(.text) refers to system_stm32f4xx.o(i.SystemInit) for SystemInit
    startup_stm32f40_41xxx.o(.text) refers to __main.o(!!!main) for __main
    startup_stm32f40_41xxx.o(.text) refers to startup_stm32f40_41xxx.o(HEAP) for Heap_Mem
    startup_stm32f40_41xxx.o(.text) refers to startup_stm32f40_41xxx.o(STACK) for Stack_Mem
    system_stm32f4xx.o(i.SystemCoreClockUpdate) refers to system_stm32f4xx.o(.data) for .data
    system_stm32f4xx.o(i.SystemInit) refers to system_stm32f4xx.o(i.SetSysClock) for SetSysClock
    device.o(i.rt_device_create) refers to mem.o(i.rt_malloc) for rt_malloc
    device.o(i.rt_device_create) refers to kservice.o(i.rt_memset) for rt_memset
    device.o(i.rt_device_destroy) refers to object.o(i.rt_object_detach) for rt_object_detach
    device.o(i.rt_device_destroy) refers to mem.o(i.rt_free) for rt_free
    device.o(i.rt_device_find) refers to object.o(i.rt_object_find) for rt_object_find
    device.o(i.rt_device_init) refers to kservice.o(i.rt_kprintf) for rt_kprintf
    device.o(i.rt_device_open) refers to kservice.o(i.rt_kprintf) for rt_kprintf
    device.o(i.rt_device_read) refers to kservice.o(i.rt_set_errno) for rt_set_errno
    device.o(i.rt_device_register) refers to device.o(i.rt_device_find) for rt_device_find
    device.o(i.rt_device_register) refers to object.o(i.rt_object_init) for rt_object_init
    device.o(i.rt_device_unregister) refers to object.o(i.rt_object_detach) for rt_object_detach
    device.o(i.rt_device_write) refers to kservice.o(i.rt_set_errno) for rt_set_errno
    cmd.o(i.hello) refers to kservice.o(i.rt_kprintf) for rt_kprintf
    cmd.o(i.list) refers to kservice.o(i.rt_kprintf) for rt_kprintf
    cmd.o(i.list) refers to strncmp.o(.text) for strncmp
    cmd.o(i.list) refers to shell.o(.data) for _syscall_table_begin
    cmd.o(i.list_device) refers to cmd.o(i.list_find_init) for list_find_init
    cmd.o(i.list_device) refers to kservice.o(i.rt_kprintf) for rt_kprintf
    cmd.o(i.list_device) refers to cmd.o(i.object_split) for object_split
    cmd.o(i.list_device) refers to cmd.o(i.list_get_next) for list_get_next
    cmd.o(i.list_device) refers to context_rvds.o(.text) for rt_hw_interrupt_disable
    cmd.o(i.list_device) refers to cmd.o(.constdata) for .constdata
    cmd.o(i.list_event) refers to cmd.o(i.list_find_init) for list_find_init
    cmd.o(i.list_event) refers to kservice.o(i.rt_kprintf) for rt_kprintf
    cmd.o(i.list_event) refers to cmd.o(i.object_split) for object_split
    cmd.o(i.list_event) refers to cmd.o(i.list_get_next) for list_get_next
    cmd.o(i.list_event) refers to context_rvds.o(.text) for rt_hw_interrupt_disable
    cmd.o(i.list_event) refers to cmd.o(i.rt_list_isempty) for rt_list_isempty
    cmd.o(i.list_event) refers to cmd.o(i.rt_list_len) for rt_list_len
    cmd.o(i.list_event) refers to cmd.o(i.show_wait_queue) for show_wait_queue
    cmd.o(i.list_find_init) refers to object.o(i.rt_object_get_information) for rt_object_get_information
    cmd.o(i.list_get_next) refers to context_rvds.o(.text) for rt_hw_interrupt_disable
    cmd.o(i.list_mailbox) refers to cmd.o(i.list_find_init) for list_find_init
    cmd.o(i.list_mailbox) refers to kservice.o(i.rt_kprintf) for rt_kprintf
    cmd.o(i.list_mailbox) refers to cmd.o(i.object_split) for object_split
    cmd.o(i.list_mailbox) refers to cmd.o(i.list_get_next) for list_get_next
    cmd.o(i.list_mailbox) refers to context_rvds.o(.text) for rt_hw_interrupt_disable
    cmd.o(i.list_mailbox) refers to cmd.o(i.rt_list_isempty) for rt_list_isempty
    cmd.o(i.list_mailbox) refers to cmd.o(i.rt_list_len) for rt_list_len
    cmd.o(i.list_mailbox) refers to cmd.o(i.show_wait_queue) for show_wait_queue
    cmd.o(i.list_msgqueue) refers to cmd.o(i.list_find_init) for list_find_init
    cmd.o(i.list_msgqueue) refers to kservice.o(i.rt_kprintf) for rt_kprintf
    cmd.o(i.list_msgqueue) refers to cmd.o(i.object_split) for object_split
    cmd.o(i.list_msgqueue) refers to cmd.o(i.list_get_next) for list_get_next
    cmd.o(i.list_msgqueue) refers to context_rvds.o(.text) for rt_hw_interrupt_disable
    cmd.o(i.list_msgqueue) refers to cmd.o(i.rt_list_isempty) for rt_list_isempty
    cmd.o(i.list_msgqueue) refers to cmd.o(i.rt_list_len) for rt_list_len
    cmd.o(i.list_msgqueue) refers to cmd.o(i.show_wait_queue) for show_wait_queue
    cmd.o(i.list_mutex) refers to cmd.o(i.list_find_init) for list_find_init
    cmd.o(i.list_mutex) refers to kservice.o(i.rt_kprintf) for rt_kprintf
    cmd.o(i.list_mutex) refers to cmd.o(i.object_split) for object_split
    cmd.o(i.list_mutex) refers to cmd.o(i.list_get_next) for list_get_next
    cmd.o(i.list_mutex) refers to context_rvds.o(.text) for rt_hw_interrupt_disable
    cmd.o(i.list_mutex) refers to cmd.o(i.rt_list_len) for rt_list_len
    cmd.o(i.list_sem) refers to cmd.o(i.list_find_init) for list_find_init
    cmd.o(i.list_sem) refers to kservice.o(i.rt_kprintf) for rt_kprintf
    cmd.o(i.list_sem) refers to cmd.o(i.object_split) for object_split
    cmd.o(i.list_sem) refers to cmd.o(i.list_get_next) for list_get_next
    cmd.o(i.list_sem) refers to context_rvds.o(.text) for rt_hw_interrupt_disable
    cmd.o(i.list_sem) refers to cmd.o(i.rt_list_isempty) for rt_list_isempty
    cmd.o(i.list_sem) refers to cmd.o(i.rt_list_len) for rt_list_len
    cmd.o(i.list_sem) refers to cmd.o(i.show_wait_queue) for show_wait_queue
    cmd.o(i.list_thread) refers to cmd.o(i.list_find_init) for list_find_init
    cmd.o(i.list_thread) refers to kservice.o(i.rt_kprintf) for rt_kprintf
    cmd.o(i.list_thread) refers to cmd.o(i.object_split) for object_split
    cmd.o(i.list_thread) refers to cmd.o(i.list_get_next) for list_get_next
    cmd.o(i.list_thread) refers to context_rvds.o(.text) for rt_hw_interrupt_disable
    cmd.o(i.list_thread) refers to rt_memcpy_w.o(.text) for __aeabi_memcpy4
    cmd.o(i.list_thread) refers to cmd.o(.conststring) for .conststring
    cmd.o(i.list_timer) refers to cmd.o(i.list_find_init) for list_find_init
    cmd.o(i.list_timer) refers to kservice.o(i.rt_kprintf) for rt_kprintf
    cmd.o(i.list_timer) refers to cmd.o(i.object_split) for object_split
    cmd.o(i.list_timer) refers to cmd.o(i.list_get_next) for list_get_next
    cmd.o(i.list_timer) refers to context_rvds.o(.text) for rt_hw_interrupt_disable
    cmd.o(i.list_timer) refers to clock.o(i.rt_tick_get) for rt_tick_get
    cmd.o(i.object_split) refers to kservice.o(i.rt_kprintf) for rt_kprintf
    cmd.o(i.show_wait_queue) refers to kservice.o(i.rt_kprintf) for rt_kprintf
    cmd.o(i.version) refers to kservice.o(i.rt_show_version) for rt_show_version
    cmd.o(.constdata) refers to cmd.o(.conststring) for .conststring
    cmd.o(FSymTab) refers to cmd.o(.rodata.name) for __fsym_hello_name
    cmd.o(FSymTab) refers to cmd.o(.rodata.name) for __fsym_hello_desc
    cmd.o(FSymTab) refers to cmd.o(i.hello) for hello
    cmd.o(FSymTab) refers to cmd.o(.rodata.name) for __fsym_version_name
    cmd.o(FSymTab) refers to cmd.o(.rodata.name) for __fsym_version_desc
    cmd.o(FSymTab) refers to cmd.o(i.version) for version
    cmd.o(FSymTab) refers to cmd.o(.rodata.name) for __fsym___cmd_version_name
    cmd.o(FSymTab) refers to cmd.o(.rodata.name) for __fsym___cmd_version_desc
    cmd.o(FSymTab) refers to cmd.o(.rodata.name) for __fsym_list_thread_name
    cmd.o(FSymTab) refers to cmd.o(.rodata.name) for __fsym_list_thread_desc
    cmd.o(FSymTab) refers to cmd.o(i.list_thread) for list_thread
    cmd.o(FSymTab) refers to cmd.o(.rodata.name) for __fsym___cmd_list_thread_name
    cmd.o(FSymTab) refers to cmd.o(.rodata.name) for __fsym___cmd_list_thread_desc
    cmd.o(FSymTab) refers to cmd.o(.rodata.name) for __fsym_list_sem_name
    cmd.o(FSymTab) refers to cmd.o(.rodata.name) for __fsym_list_sem_desc
    cmd.o(FSymTab) refers to cmd.o(i.list_sem) for list_sem
    cmd.o(FSymTab) refers to cmd.o(.rodata.name) for __fsym___cmd_list_sem_name
    cmd.o(FSymTab) refers to cmd.o(.rodata.name) for __fsym___cmd_list_sem_desc
    cmd.o(FSymTab) refers to cmd.o(.rodata.name) for __fsym_list_event_name
    cmd.o(FSymTab) refers to cmd.o(.rodata.name) for __fsym_list_event_desc
    cmd.o(FSymTab) refers to cmd.o(i.list_event) for list_event
    cmd.o(FSymTab) refers to cmd.o(.rodata.name) for __fsym___cmd_list_event_name
    cmd.o(FSymTab) refers to cmd.o(.rodata.name) for __fsym___cmd_list_event_desc
    cmd.o(FSymTab) refers to cmd.o(.rodata.name) for __fsym_list_mutex_name
    cmd.o(FSymTab) refers to cmd.o(.rodata.name) for __fsym_list_mutex_desc
    cmd.o(FSymTab) refers to cmd.o(i.list_mutex) for list_mutex
    cmd.o(FSymTab) refers to cmd.o(.rodata.name) for __fsym___cmd_list_mutex_name
    cmd.o(FSymTab) refers to cmd.o(.rodata.name) for __fsym___cmd_list_mutex_desc
    cmd.o(FSymTab) refers to cmd.o(.rodata.name) for __fsym_list_mailbox_name
    cmd.o(FSymTab) refers to cmd.o(.rodata.name) for __fsym_list_mailbox_desc
    cmd.o(FSymTab) refers to cmd.o(i.list_mailbox) for list_mailbox
    cmd.o(FSymTab) refers to cmd.o(.rodata.name) for __fsym___cmd_list_mailbox_name
    cmd.o(FSymTab) refers to cmd.o(.rodata.name) for __fsym___cmd_list_mailbox_desc
    cmd.o(FSymTab) refers to cmd.o(.rodata.name) for __fsym_list_msgqueue_name
    cmd.o(FSymTab) refers to cmd.o(.rodata.name) for __fsym_list_msgqueue_desc
    cmd.o(FSymTab) refers to cmd.o(i.list_msgqueue) for list_msgqueue
    cmd.o(FSymTab) refers to cmd.o(.rodata.name) for __fsym___cmd_list_msgqueue_name
    cmd.o(FSymTab) refers to cmd.o(.rodata.name) for __fsym___cmd_list_msgqueue_desc
    cmd.o(FSymTab) refers to cmd.o(.rodata.name) for __fsym_list_timer_name
    cmd.o(FSymTab) refers to cmd.o(.rodata.name) for __fsym_list_timer_desc
    cmd.o(FSymTab) refers to cmd.o(i.list_timer) for list_timer
    cmd.o(FSymTab) refers to cmd.o(.rodata.name) for __fsym___cmd_list_timer_name
    cmd.o(FSymTab) refers to cmd.o(.rodata.name) for __fsym___cmd_list_timer_desc
    cmd.o(FSymTab) refers to cmd.o(.rodata.name) for __fsym_list_device_name
    cmd.o(FSymTab) refers to cmd.o(.rodata.name) for __fsym_list_device_desc
    cmd.o(FSymTab) refers to cmd.o(i.list_device) for list_device
    cmd.o(FSymTab) refers to cmd.o(.rodata.name) for __fsym___cmd_list_device_name
    cmd.o(FSymTab) refers to cmd.o(.rodata.name) for __fsym___cmd_list_device_desc
    cmd.o(FSymTab) refers to cmd.o(.rodata.name) for __fsym_list_name
    cmd.o(FSymTab) refers to cmd.o(.rodata.name) for __fsym_list_desc
    cmd.o(FSymTab) refers to cmd.o(i.list) for list
    msh.o(i._msh_exec_cmd) refers to strncmp.o(.text) for strncmp
    msh.o(i._msh_exec_cmd) refers to rt_memclr_w.o(.text) for __aeabi_memclr4
    msh.o(i._msh_exec_cmd) refers to msh.o(i.msh_split) for msh_split
    msh.o(i._msh_exec_cmd) refers to shell.o(.data) for _syscall_table_begin
    msh.o(i.cmd_free) refers to mem.o(i.list_mem) for list_mem
    msh.o(i.cmd_ps) refers to cmd.o(i.list_thread) for list_thread
    msh.o(i.msh_auto_complete) refers to msh.o(i.msh_help) for msh_help
    msh.o(i.msh_auto_complete) refers to strncmp.o(.text) for strncmp
    msh.o(i.msh_auto_complete) refers to strlen.o(.text) for strlen
    msh.o(i.msh_auto_complete) refers to kservice.o(i.rt_kprintf) for rt_kprintf
    msh.o(i.msh_auto_complete) refers to kservice.o(i.rt_strncpy) for rt_strncpy
    msh.o(i.msh_auto_complete) refers to shell.o(.data) for _syscall_table_begin
    msh.o(i.msh_exec) refers to msh.o(i._msh_exec_cmd) for _msh_exec_cmd
    msh.o(i.msh_exec) refers to kservice.o(i.rt_kprintf) for rt_kprintf
    msh.o(i.msh_help) refers to kservice.o(i.rt_kprintf) for rt_kprintf
    msh.o(i.msh_help) refers to strncmp.o(.text) for strncmp
    msh.o(i.msh_help) refers to shell.o(.data) for _syscall_table_begin
    msh.o(i.msh_split) refers to kservice.o(i.rt_kprintf) for rt_kprintf
    msh.o(FSymTab) refers to msh.o(.rodata.name) for __fsym___cmd_help_name
    msh.o(FSymTab) refers to msh.o(.rodata.name) for __fsym___cmd_help_desc
    msh.o(FSymTab) refers to msh.o(i.msh_help) for msh_help
    msh.o(FSymTab) refers to msh.o(.rodata.name) for __fsym___cmd_ps_name
    msh.o(FSymTab) refers to msh.o(.rodata.name) for __fsym___cmd_ps_desc
    msh.o(FSymTab) refers to msh.o(i.cmd_ps) for cmd_ps
    msh.o(FSymTab) refers to msh.o(.rodata.name) for __fsym___cmd_free_name
    msh.o(FSymTab) refers to msh.o(.rodata.name) for __fsym___cmd_free_desc
    msh.o(FSymTab) refers to msh.o(i.cmd_free) for cmd_free
    shell.o(i.finsh_get_device) refers to shell.o(.data) for .data
    shell.o(i.finsh_get_echo) refers to shell.o(.data) for .data
    shell.o(i.finsh_get_prompt) refers to strncpy.o(.text) for strncpy
    shell.o(i.finsh_get_prompt) refers to msh.o(i.msh_is_used) for msh_is_used
    shell.o(i.finsh_get_prompt) refers to strcpy.o(.text) for strcpy
    shell.o(i.finsh_get_prompt) refers to strcat.o(.text) for strcat
    shell.o(i.finsh_get_prompt) refers to shell.o(.data) for .data
    shell.o(i.finsh_get_prompt) refers to shell.o(.bss) for .bss
    shell.o(i.finsh_get_prompt_mode) refers to shell.o(.data) for .data
    shell.o(i.finsh_rx_ind) refers to ipc.o(i.rt_sem_release) for rt_sem_release
    shell.o(i.finsh_rx_ind) refers to shell.o(.data) for .data
    shell.o(i.finsh_set_device) refers to device.o(i.rt_device_find) for rt_device_find
    shell.o(i.finsh_set_device) refers to device.o(i.rt_device_open) for rt_device_open
    shell.o(i.finsh_set_device) refers to device.o(i.rt_device_close) for rt_device_close
    shell.o(i.finsh_set_device) refers to device.o(i.rt_device_set_rx_indicate) for rt_device_set_rx_indicate
    shell.o(i.finsh_set_device) refers to rt_memclr.o(.text) for __aeabi_memclr
    shell.o(i.finsh_set_device) refers to kservice.o(i.rt_kprintf) for rt_kprintf
    shell.o(i.finsh_set_device) refers to shell.o(.data) for .data
    shell.o(i.finsh_set_device) refers to shell.o(i.finsh_rx_ind) for finsh_rx_ind
    shell.o(i.finsh_set_echo) refers to shell.o(.data) for .data
    shell.o(i.finsh_set_prompt) refers to mem.o(i.rt_free) for rt_free
    shell.o(i.finsh_set_prompt) refers to strlen.o(.text) for strlen
    shell.o(i.finsh_set_prompt) refers to mem.o(i.rt_malloc) for rt_malloc
    shell.o(i.finsh_set_prompt) refers to strcpy.o(.text) for strcpy
    shell.o(i.finsh_set_prompt) refers to shell.o(.data) for .data
    shell.o(i.finsh_set_prompt_mode) refers to shell.o(.data) for .data
    shell.o(i.finsh_system_function_init) refers to shell.o(.data) for .data
    shell.o(i.finsh_system_init) refers to shell.o(i.finsh_system_function_init) for finsh_system_function_init
    shell.o(i.finsh_system_init) refers to mem.o(i.rt_calloc) for rt_calloc
    shell.o(i.finsh_system_init) refers to thread.o(i.rt_thread_create) for rt_thread_create
    shell.o(i.finsh_system_init) refers to ipc.o(i.rt_sem_init) for rt_sem_init
    shell.o(i.finsh_system_init) refers to shell.o(i.finsh_set_prompt_mode) for finsh_set_prompt_mode
    shell.o(i.finsh_system_init) refers to thread.o(i.rt_thread_startup) for rt_thread_startup
    shell.o(i.finsh_system_init) refers to kservice.o(i.rt_kprintf) for rt_kprintf
    shell.o(i.finsh_system_init) refers to shell.o(.data) for .data
    shell.o(i.finsh_system_init) refers to shell.o(i.finsh_thread_entry) for finsh_thread_entry
    shell.o(i.finsh_system_var_init) refers to shell.o(.data) for .data
    shell.o(i.finsh_thread_entry) refers to kservice.o(i.rt_console_get_device) for rt_console_get_device
    shell.o(i.finsh_thread_entry) refers to shell.o(i.finsh_set_device) for finsh_set_device
    shell.o(i.finsh_thread_entry) refers to shell.o(i.finsh_get_prompt) for finsh_get_prompt
    shell.o(i.finsh_thread_entry) refers to kservice.o(i.rt_kprintf) for rt_kprintf
    shell.o(i.finsh_thread_entry) refers to ipc.o(i.rt_sem_take) for rt_sem_take
    shell.o(i.finsh_thread_entry) refers to device.o(i.rt_device_read) for rt_device_read
    shell.o(i.finsh_thread_entry) refers to finsh_port.o(i.rt_hw_console_getchar) for rt_hw_console_getchar
    shell.o(i.finsh_thread_entry) refers to kservice.o(i.rt_memmove) for rt_memmove
    shell.o(i.finsh_thread_entry) refers to msh.o(i.msh_is_used) for msh_is_used
    shell.o(i.finsh_thread_entry) refers to msh.o(i.msh_auto_complete) for msh_auto_complete
    shell.o(i.finsh_thread_entry) refers to strlen.o(.text) for strlen
    shell.o(i.finsh_thread_entry) refers to msh.o(i.msh_exec) for msh_exec
    shell.o(i.finsh_thread_entry) refers to rt_memclr.o(.text) for __aeabi_memclr
    shell.o(i.finsh_thread_entry) refers to shell.o(.data) for .data
    shell.o(.rti_fn.6) refers to shell.o(i.finsh_system_init) for finsh_system_init
    context_rvds.o(.text) refers to cpuport.o(i.rt_hw_hard_fault_exception) for rt_hw_hard_fault_exception
    context_rvds.o(.text) refers to cpuport.o(.data) for rt_thread_switch_interrupt_flag
    context_rvds.o(.text) refers to cpuport.o(.data) for rt_interrupt_from_thread
    context_rvds.o(.text) refers to cpuport.o(.data) for rt_interrupt_to_thread
    cpuport.o(i.bus_fault_track) refers to kservice.o(i.rt_kprintf) for rt_kprintf
    cpuport.o(i.hard_fault_track) refers to kservice.o(i.rt_kprintf) for rt_kprintf
    cpuport.o(i.hard_fault_track) refers to cpuport.o(i.bus_fault_track) for bus_fault_track
    cpuport.o(i.hard_fault_track) refers to cpuport.o(i.mem_manage_fault_track) for mem_manage_fault_track
    cpuport.o(i.hard_fault_track) refers to cpuport.o(i.usage_fault_track) for usage_fault_track
    cpuport.o(i.mem_manage_fault_track) refers to kservice.o(i.rt_kprintf) for rt_kprintf
    cpuport.o(i.mem_manage_fault_track) refers to cpuport.o(i.usage_fault_track) for i.usage_fault_track
    cpuport.o(i.rt_hw_cpu_shutdown) refers to kservice.o(i.rt_kprintf) for rt_kprintf
    cpuport.o(i.rt_hw_exception_install) refers to cpuport.o(.data) for .data
    cpuport.o(i.rt_hw_hard_fault_exception) refers to kservice.o(i.rt_kprintf) for rt_kprintf
    cpuport.o(i.rt_hw_hard_fault_exception) refers to thread.o(i.rt_thread_self) for rt_thread_self
    cpuport.o(i.rt_hw_hard_fault_exception) refers to cmd.o(i.list_thread) for list_thread
    cpuport.o(i.rt_hw_hard_fault_exception) refers to cpuport.o(i.hard_fault_track) for hard_fault_track
    cpuport.o(i.rt_hw_hard_fault_exception) refers to cpuport.o(.data) for .data
    cpuport.o(i.usage_fault_track) refers to kservice.o(i.rt_kprintf) for rt_kprintf
    clock.o(i.rt_tick_get) refers to clock.o(.data) for .data
    clock.o(i.rt_tick_increase) refers to thread.o(i.rt_thread_self) for rt_thread_self
    clock.o(i.rt_tick_increase) refers to thread.o(i.rt_thread_yield) for rt_thread_yield
    clock.o(i.rt_tick_increase) refers to timer.o(i.rt_timer_check) for rt_timer_check
    clock.o(i.rt_tick_increase) refers to clock.o(.data) for .data
    clock.o(i.rt_tick_set) refers to context_rvds.o(.text) for rt_hw_interrupt_disable
    clock.o(i.rt_tick_set) refers to clock.o(.data) for .data
    components.o(i.$Sub$$main) refers to components.o(i.rtthread_startup) for rtthread_startup
    components.o(i.main_thread_entry) refers to components.o(i.rt_components_init) for rt_components_init
    components.o(i.main_thread_entry) refers to main.o(i.main) for $Super$$main
    components.o(i.rt_application_init) refers to thread.o(i.rt_thread_create) for rt_thread_create
    components.o(i.rt_application_init) refers to thread.o(i.rt_thread_startup) for rt_thread_startup
    components.o(i.rt_application_init) refers to components.o(i.main_thread_entry) for main_thread_entry
    components.o(i.rt_components_board_init) refers to components.o(.rti_fn.0.end) for .rti_fn.0.end
    components.o(i.rt_components_board_init) refers to components.o(.rti_fn.1.end) for .rti_fn.1.end
    components.o(i.rt_components_init) refers to components.o(.rti_fn.1.end) for .rti_fn.1.end
    components.o(i.rt_components_init) refers to components.o(.rti_fn.6.end) for .rti_fn.6.end
    components.o(i.rtthread_startup) refers to context_rvds.o(.text) for rt_hw_interrupt_disable
    components.o(i.rtthread_startup) refers to board.o(i.rt_hw_board_init) for rt_hw_board_init
    components.o(i.rtthread_startup) refers to kservice.o(i.rt_show_version) for rt_show_version
    components.o(i.rtthread_startup) refers to timer.o(i.rt_system_timer_init) for rt_system_timer_init
    components.o(i.rtthread_startup) refers to scheduler.o(i.rt_system_scheduler_init) for rt_system_scheduler_init
    components.o(i.rtthread_startup) refers to components.o(i.rt_application_init) for rt_application_init
    components.o(i.rtthread_startup) refers to timer.o(i.rt_system_timer_thread_init) for rt_system_timer_thread_init
    components.o(i.rtthread_startup) refers to idle.o(i.rt_thread_idle_init) for rt_thread_idle_init
    components.o(i.rtthread_startup) refers to scheduler.o(i.rt_system_scheduler_start) for rt_system_scheduler_start
    components.o(.rti_fn.0) refers to components.o(i.rti_start) for rti_start
    components.o(.rti_fn.0.end) refers to components.o(i.rti_board_start) for rti_board_start
    components.o(.rti_fn.1.end) refers to components.o(i.rti_board_end) for rti_board_end
    components.o(.rti_fn.6.end) refers to components.o(i.rti_end) for rti_end
    idle.o(i.rt_thread_idle_entry) refers to idle.o(i.rt_thread_idle_excute) for rt_thread_idle_excute
    idle.o(i.rt_thread_idle_excute) refers to context_rvds.o(.text) for rt_hw_interrupt_disable
    idle.o(i.rt_thread_idle_excute) refers to mem.o(i.rt_free) for rt_free
    idle.o(i.rt_thread_idle_excute) refers to object.o(i.rt_object_delete) for rt_object_delete
    idle.o(i.rt_thread_idle_excute) refers to scheduler.o(.data) for rt_thread_defunct
    idle.o(i.rt_thread_idle_gethandler) refers to idle.o(.bss) for .bss
    idle.o(i.rt_thread_idle_init) refers to thread.o(i.rt_thread_init) for rt_thread_init
    idle.o(i.rt_thread_idle_init) refers to thread.o(i.rt_thread_startup) for rt_thread_startup
    idle.o(i.rt_thread_idle_init) refers to idle.o(.bss) for .bss
    idle.o(i.rt_thread_idle_init) refers to idle.o(i.rt_thread_idle_entry) for rt_thread_idle_entry
    ipc.o(i.rt_event_control) refers to context_rvds.o(.text) for rt_hw_interrupt_disable
    ipc.o(i.rt_event_control) refers to ipc.o(i.rt_ipc_list_resume_all) for rt_ipc_list_resume_all
    ipc.o(i.rt_event_control) refers to scheduler.o(i.rt_schedule) for rt_schedule
    ipc.o(i.rt_event_create) refers to object.o(i.rt_object_allocate) for rt_object_allocate
    ipc.o(i.rt_event_delete) refers to ipc.o(i.rt_ipc_list_resume_all) for rt_ipc_list_resume_all
    ipc.o(i.rt_event_delete) refers to object.o(i.rt_object_delete) for rt_object_delete
    ipc.o(i.rt_event_detach) refers to ipc.o(i.rt_ipc_list_resume_all) for rt_ipc_list_resume_all
    ipc.o(i.rt_event_detach) refers to object.o(i.rt_object_detach) for rt_object_detach
    ipc.o(i.rt_event_init) refers to object.o(i.rt_object_init) for rt_object_init
    ipc.o(i.rt_event_recv) refers to thread.o(i.rt_thread_self) for rt_thread_self
    ipc.o(i.rt_event_recv) refers to context_rvds.o(.text) for rt_hw_interrupt_disable
    ipc.o(i.rt_event_recv) refers to ipc.o(i.rt_ipc_list_suspend) for rt_ipc_list_suspend
    ipc.o(i.rt_event_recv) refers to timer.o(i.rt_timer_control) for rt_timer_control
    ipc.o(i.rt_event_recv) refers to timer.o(i.rt_timer_start) for rt_timer_start
    ipc.o(i.rt_event_recv) refers to scheduler.o(i.rt_schedule) for rt_schedule
    ipc.o(i.rt_event_send) refers to context_rvds.o(.text) for rt_hw_interrupt_disable
    ipc.o(i.rt_event_send) refers to ipc.o(i.rt_list_isempty) for rt_list_isempty
    ipc.o(i.rt_event_send) refers to thread.o(i.rt_thread_resume) for rt_thread_resume
    ipc.o(i.rt_event_send) refers to scheduler.o(i.rt_schedule) for rt_schedule
    ipc.o(i.rt_ipc_list_resume) refers to thread.o(i.rt_thread_resume) for rt_thread_resume
    ipc.o(i.rt_ipc_list_resume_all) refers to context_rvds.o(.text) for rt_hw_interrupt_disable
    ipc.o(i.rt_ipc_list_resume_all) refers to thread.o(i.rt_thread_resume) for rt_thread_resume
    ipc.o(i.rt_ipc_list_resume_all) refers to ipc.o(i.rt_list_isempty) for rt_list_isempty
    ipc.o(i.rt_ipc_list_suspend) refers to thread.o(i.rt_thread_suspend) for rt_thread_suspend
    ipc.o(i.rt_ipc_list_suspend) refers to ipc.o(i.rt_list_insert_before) for rt_list_insert_before
    ipc.o(i.rt_mb_control) refers to context_rvds.o(.text) for rt_hw_interrupt_disable
    ipc.o(i.rt_mb_control) refers to ipc.o(i.rt_ipc_list_resume_all) for rt_ipc_list_resume_all
    ipc.o(i.rt_mb_control) refers to scheduler.o(i.rt_schedule) for rt_schedule
    ipc.o(i.rt_mb_create) refers to object.o(i.rt_object_allocate) for rt_object_allocate
    ipc.o(i.rt_mb_create) refers to mem.o(i.rt_malloc) for rt_malloc
    ipc.o(i.rt_mb_create) refers to object.o(i.rt_object_delete) for rt_object_delete
    ipc.o(i.rt_mb_delete) refers to ipc.o(i.rt_ipc_list_resume_all) for rt_ipc_list_resume_all
    ipc.o(i.rt_mb_delete) refers to mem.o(i.rt_free) for rt_free
    ipc.o(i.rt_mb_delete) refers to object.o(i.rt_object_delete) for rt_object_delete
    ipc.o(i.rt_mb_detach) refers to ipc.o(i.rt_ipc_list_resume_all) for rt_ipc_list_resume_all
    ipc.o(i.rt_mb_detach) refers to object.o(i.rt_object_detach) for rt_object_detach
    ipc.o(i.rt_mb_init) refers to object.o(i.rt_object_init) for rt_object_init
    ipc.o(i.rt_mb_recv) refers to thread.o(i.rt_thread_self) for rt_thread_self
    ipc.o(i.rt_mb_recv) refers to context_rvds.o(.text) for rt_hw_interrupt_disable
    ipc.o(i.rt_mb_recv) refers to ipc.o(i.rt_ipc_list_suspend) for rt_ipc_list_suspend
    ipc.o(i.rt_mb_recv) refers to clock.o(i.rt_tick_get) for rt_tick_get
    ipc.o(i.rt_mb_recv) refers to timer.o(i.rt_timer_control) for rt_timer_control
    ipc.o(i.rt_mb_recv) refers to timer.o(i.rt_timer_start) for rt_timer_start
    ipc.o(i.rt_mb_recv) refers to scheduler.o(i.rt_schedule) for rt_schedule
    ipc.o(i.rt_mb_recv) refers to ipc.o(i.rt_list_isempty) for rt_list_isempty
    ipc.o(i.rt_mb_recv) refers to ipc.o(i.rt_ipc_list_resume) for rt_ipc_list_resume
    ipc.o(i.rt_mb_send) refers to ipc.o(i.rt_mb_send_wait) for rt_mb_send_wait
    ipc.o(i.rt_mb_send_wait) refers to thread.o(i.rt_thread_self) for rt_thread_self
    ipc.o(i.rt_mb_send_wait) refers to context_rvds.o(.text) for rt_hw_interrupt_disable
    ipc.o(i.rt_mb_send_wait) refers to ipc.o(i.rt_ipc_list_suspend) for rt_ipc_list_suspend
    ipc.o(i.rt_mb_send_wait) refers to clock.o(i.rt_tick_get) for rt_tick_get
    ipc.o(i.rt_mb_send_wait) refers to timer.o(i.rt_timer_control) for rt_timer_control
    ipc.o(i.rt_mb_send_wait) refers to timer.o(i.rt_timer_start) for rt_timer_start
    ipc.o(i.rt_mb_send_wait) refers to scheduler.o(i.rt_schedule) for rt_schedule
    ipc.o(i.rt_mb_send_wait) refers to ipc.o(i.rt_list_isempty) for rt_list_isempty
    ipc.o(i.rt_mb_send_wait) refers to ipc.o(i.rt_ipc_list_resume) for rt_ipc_list_resume
    ipc.o(i.rt_mq_control) refers to context_rvds.o(.text) for rt_hw_interrupt_disable
    ipc.o(i.rt_mq_control) refers to ipc.o(i.rt_ipc_list_resume_all) for rt_ipc_list_resume_all
    ipc.o(i.rt_mq_control) refers to scheduler.o(i.rt_schedule) for rt_schedule
    ipc.o(i.rt_mq_create) refers to object.o(i.rt_object_allocate) for rt_object_allocate
    ipc.o(i.rt_mq_create) refers to mem.o(i.rt_malloc) for rt_malloc
    ipc.o(i.rt_mq_create) refers to object.o(i.rt_object_delete) for rt_object_delete
    ipc.o(i.rt_mq_delete) refers to ipc.o(i.rt_ipc_list_resume_all) for rt_ipc_list_resume_all
    ipc.o(i.rt_mq_delete) refers to mem.o(i.rt_free) for rt_free
    ipc.o(i.rt_mq_delete) refers to object.o(i.rt_object_delete) for rt_object_delete
    ipc.o(i.rt_mq_detach) refers to ipc.o(i.rt_ipc_list_resume_all) for rt_ipc_list_resume_all
    ipc.o(i.rt_mq_detach) refers to object.o(i.rt_object_detach) for rt_object_detach
    ipc.o(i.rt_mq_init) refers to object.o(i.rt_object_init) for rt_object_init
    ipc.o(i.rt_mq_recv) refers to thread.o(i.rt_thread_self) for rt_thread_self
    ipc.o(i.rt_mq_recv) refers to context_rvds.o(.text) for rt_hw_interrupt_disable
    ipc.o(i.rt_mq_recv) refers to ipc.o(i.rt_ipc_list_suspend) for rt_ipc_list_suspend
    ipc.o(i.rt_mq_recv) refers to clock.o(i.rt_tick_get) for rt_tick_get
    ipc.o(i.rt_mq_recv) refers to timer.o(i.rt_timer_control) for rt_timer_control
    ipc.o(i.rt_mq_recv) refers to timer.o(i.rt_timer_start) for rt_timer_start
    ipc.o(i.rt_mq_recv) refers to scheduler.o(i.rt_schedule) for rt_schedule
    ipc.o(i.rt_mq_recv) refers to kservice.o(i.rt_memcpy) for rt_memcpy
    ipc.o(i.rt_mq_recv) refers to ipc.o(i.rt_list_isempty) for rt_list_isempty
    ipc.o(i.rt_mq_recv) refers to ipc.o(i.rt_ipc_list_resume) for rt_ipc_list_resume
    ipc.o(i.rt_mq_send) refers to ipc.o(i.rt_mq_send_wait) for rt_mq_send_wait
    ipc.o(i.rt_mq_send_wait) refers to thread.o(i.rt_thread_self) for rt_thread_self
    ipc.o(i.rt_mq_send_wait) refers to context_rvds.o(.text) for rt_hw_interrupt_disable
    ipc.o(i.rt_mq_send_wait) refers to kservice.o(i.rt_memcpy) for rt_memcpy
    ipc.o(i.rt_mq_send_wait) refers to ipc.o(i.rt_ipc_list_suspend) for rt_ipc_list_suspend
    ipc.o(i.rt_mq_send_wait) refers to clock.o(i.rt_tick_get) for rt_tick_get
    ipc.o(i.rt_mq_send_wait) refers to timer.o(i.rt_timer_control) for rt_timer_control
    ipc.o(i.rt_mq_send_wait) refers to timer.o(i.rt_timer_start) for rt_timer_start
    ipc.o(i.rt_mq_send_wait) refers to scheduler.o(i.rt_schedule) for rt_schedule
    ipc.o(i.rt_mq_send_wait) refers to ipc.o(i.rt_list_isempty) for rt_list_isempty
    ipc.o(i.rt_mq_send_wait) refers to ipc.o(i.rt_ipc_list_resume) for rt_ipc_list_resume
    ipc.o(i.rt_mq_urgent) refers to context_rvds.o(.text) for rt_hw_interrupt_disable
    ipc.o(i.rt_mq_urgent) refers to kservice.o(i.rt_memcpy) for rt_memcpy
    ipc.o(i.rt_mq_urgent) refers to ipc.o(i.rt_list_isempty) for rt_list_isempty
    ipc.o(i.rt_mq_urgent) refers to ipc.o(i.rt_ipc_list_resume) for rt_ipc_list_resume
    ipc.o(i.rt_mq_urgent) refers to scheduler.o(i.rt_schedule) for rt_schedule
    ipc.o(i.rt_mutex_create) refers to object.o(i.rt_object_allocate) for rt_object_allocate
    ipc.o(i.rt_mutex_delete) refers to ipc.o(i.rt_ipc_list_resume_all) for rt_ipc_list_resume_all
    ipc.o(i.rt_mutex_delete) refers to object.o(i.rt_object_delete) for rt_object_delete
    ipc.o(i.rt_mutex_detach) refers to ipc.o(i.rt_ipc_list_resume_all) for rt_ipc_list_resume_all
    ipc.o(i.rt_mutex_detach) refers to object.o(i.rt_object_detach) for rt_object_detach
    ipc.o(i.rt_mutex_init) refers to object.o(i.rt_object_init) for rt_object_init
    ipc.o(i.rt_mutex_release) refers to thread.o(i.rt_thread_self) for rt_thread_self
    ipc.o(i.rt_mutex_release) refers to context_rvds.o(.text) for rt_hw_interrupt_disable
    ipc.o(i.rt_mutex_release) refers to thread.o(i.rt_thread_control) for rt_thread_control
    ipc.o(i.rt_mutex_release) refers to ipc.o(i.rt_list_isempty) for rt_list_isempty
    ipc.o(i.rt_mutex_release) refers to ipc.o(i.rt_ipc_list_resume) for rt_ipc_list_resume
    ipc.o(i.rt_mutex_release) refers to scheduler.o(i.rt_schedule) for rt_schedule
    ipc.o(i.rt_mutex_take) refers to thread.o(i.rt_thread_self) for rt_thread_self
    ipc.o(i.rt_mutex_take) refers to context_rvds.o(.text) for rt_hw_interrupt_disable
    ipc.o(i.rt_mutex_take) refers to thread.o(i.rt_thread_control) for rt_thread_control
    ipc.o(i.rt_mutex_take) refers to ipc.o(i.rt_ipc_list_suspend) for rt_ipc_list_suspend
    ipc.o(i.rt_mutex_take) refers to timer.o(i.rt_timer_control) for rt_timer_control
    ipc.o(i.rt_mutex_take) refers to timer.o(i.rt_timer_start) for rt_timer_start
    ipc.o(i.rt_mutex_take) refers to scheduler.o(i.rt_schedule) for rt_schedule
    ipc.o(i.rt_sem_control) refers to context_rvds.o(.text) for rt_hw_interrupt_disable
    ipc.o(i.rt_sem_control) refers to ipc.o(i.rt_ipc_list_resume_all) for rt_ipc_list_resume_all
    ipc.o(i.rt_sem_control) refers to scheduler.o(i.rt_schedule) for rt_schedule
    ipc.o(i.rt_sem_create) refers to object.o(i.rt_object_allocate) for rt_object_allocate
    ipc.o(i.rt_sem_delete) refers to ipc.o(i.rt_ipc_list_resume_all) for rt_ipc_list_resume_all
    ipc.o(i.rt_sem_delete) refers to object.o(i.rt_object_delete) for rt_object_delete
    ipc.o(i.rt_sem_detach) refers to ipc.o(i.rt_ipc_list_resume_all) for rt_ipc_list_resume_all
    ipc.o(i.rt_sem_detach) refers to object.o(i.rt_object_detach) for rt_object_detach
    ipc.o(i.rt_sem_init) refers to object.o(i.rt_object_init) for rt_object_init
    ipc.o(i.rt_sem_release) refers to context_rvds.o(.text) for rt_hw_interrupt_disable
    ipc.o(i.rt_sem_release) refers to ipc.o(i.rt_list_isempty) for rt_list_isempty
    ipc.o(i.rt_sem_release) refers to ipc.o(i.rt_ipc_list_resume) for rt_ipc_list_resume
    ipc.o(i.rt_sem_release) refers to scheduler.o(i.rt_schedule) for rt_schedule
    ipc.o(i.rt_sem_take) refers to context_rvds.o(.text) for rt_hw_interrupt_disable
    ipc.o(i.rt_sem_take) refers to thread.o(i.rt_thread_self) for rt_thread_self
    ipc.o(i.rt_sem_take) refers to ipc.o(i.rt_ipc_list_suspend) for rt_ipc_list_suspend
    ipc.o(i.rt_sem_take) refers to timer.o(i.rt_timer_control) for rt_timer_control
    ipc.o(i.rt_sem_take) refers to timer.o(i.rt_timer_start) for rt_timer_start
    ipc.o(i.rt_sem_take) refers to scheduler.o(i.rt_schedule) for rt_schedule
    ipc.o(i.rt_sem_trytake) refers to ipc.o(i.rt_sem_take) for rt_sem_take
    irq.o(i.rt_interrupt_enter) refers to context_rvds.o(.text) for rt_hw_interrupt_disable
    irq.o(i.rt_interrupt_enter) refers to irq.o(.data) for .data
    irq.o(i.rt_interrupt_get_nest) refers to context_rvds.o(.text) for rt_hw_interrupt_disable
    irq.o(i.rt_interrupt_get_nest) refers to irq.o(.data) for .data
    irq.o(i.rt_interrupt_leave) refers to context_rvds.o(.text) for rt_hw_interrupt_disable
    irq.o(i.rt_interrupt_leave) refers to irq.o(.data) for .data
    kservice.o(i.__rt_ffs) refers to kservice.o(.constdata) for .constdata
    kservice.o(i._rt_errno) refers to irq.o(i.rt_interrupt_get_nest) for rt_interrupt_get_nest
    kservice.o(i._rt_errno) refers to thread.o(i.rt_thread_self) for rt_thread_self
    kservice.o(i._rt_errno) refers to kservice.o(.data) for .data
    kservice.o(i.print_number) refers to kservice.o(.constdata) for .constdata
    kservice.o(i.rt_console_get_device) refers to kservice.o(.data) for .data
    kservice.o(i.rt_console_set_device) refers to device.o(i.rt_device_find) for rt_device_find
    kservice.o(i.rt_console_set_device) refers to device.o(i.rt_device_close) for rt_device_close
    kservice.o(i.rt_console_set_device) refers to device.o(i.rt_device_open) for rt_device_open
    kservice.o(i.rt_console_set_device) refers to kservice.o(.data) for .data
    kservice.o(i.rt_free_align) refers to mem.o(i.rt_free) for rt_free
    kservice.o(i.rt_get_errno) refers to irq.o(i.rt_interrupt_get_nest) for rt_interrupt_get_nest
    kservice.o(i.rt_get_errno) refers to thread.o(i.rt_thread_self) for rt_thread_self
    kservice.o(i.rt_get_errno) refers to kservice.o(.data) for .data
    kservice.o(i.rt_kprintf) refers to kservice.o(i.rt_vsnprintf) for rt_vsnprintf
    kservice.o(i.rt_kprintf) refers to device.o(i.rt_device_write) for rt_device_write
    kservice.o(i.rt_kprintf) refers to board.o(i.rt_hw_console_output) for rt_hw_console_output
    kservice.o(i.rt_kprintf) refers to kservice.o(.bss) for .bss
    kservice.o(i.rt_kprintf) refers to kservice.o(.data) for .data
    kservice.o(i.rt_kputs) refers to kservice.o(i.rt_strlen) for rt_strlen
    kservice.o(i.rt_kputs) refers to device.o(i.rt_device_write) for rt_device_write
    kservice.o(i.rt_kputs) refers to board.o(i.rt_hw_console_output) for rt_hw_console_output
    kservice.o(i.rt_kputs) refers to kservice.o(.data) for .data
    kservice.o(i.rt_malloc_align) refers to mem.o(i.rt_malloc) for rt_malloc
    kservice.o(i.rt_set_errno) refers to irq.o(i.rt_interrupt_get_nest) for rt_interrupt_get_nest
    kservice.o(i.rt_set_errno) refers to thread.o(i.rt_thread_self) for rt_thread_self
    kservice.o(i.rt_set_errno) refers to kservice.o(.data) for .data
    kservice.o(i.rt_show_version) refers to kservice.o(i.rt_kprintf) for rt_kprintf
    kservice.o(i.rt_snprintf) refers to kservice.o(i.rt_vsnprintf) for rt_vsnprintf
    kservice.o(i.rt_sprintf) refers to kservice.o(i.rt_vsprintf) for rt_vsprintf
    kservice.o(i.rt_strdup) refers to kservice.o(i.rt_strlen) for rt_strlen
    kservice.o(i.rt_strdup) refers to mem.o(i.rt_malloc) for rt_malloc
    kservice.o(i.rt_strdup) refers to kservice.o(i.rt_memcpy) for rt_memcpy
    kservice.o(i.rt_strstr) refers to kservice.o(i.rt_strlen) for rt_strlen
    kservice.o(i.rt_strstr) refers to kservice.o(i.rt_memcmp) for rt_memcmp
    kservice.o(i.rt_vsnprintf) refers to kservice.o(i.skip_atoi) for skip_atoi
    kservice.o(i.rt_vsnprintf) refers to kservice.o(i.print_number) for print_number
    kservice.o(i.rt_vsprintf) refers to kservice.o(i.rt_vsnprintf) for rt_vsnprintf
    mem.o(i.list_mem) refers to kservice.o(i.rt_kprintf) for rt_kprintf
    mem.o(i.list_mem) refers to mem.o(.data) for .data
    mem.o(i.plug_holes) refers to mem.o(.data) for .data
    mem.o(i.rt_calloc) refers to mem.o(i.rt_malloc) for rt_malloc
    mem.o(i.rt_calloc) refers to kservice.o(i.rt_memset) for rt_memset
    mem.o(i.rt_free) refers to ipc.o(i.rt_sem_take) for rt_sem_take
    mem.o(i.rt_free) refers to kservice.o(i.rt_kprintf) for rt_kprintf
    mem.o(i.rt_free) refers to mem.o(i.plug_holes) for plug_holes
    mem.o(i.rt_free) refers to ipc.o(i.rt_sem_release) for rt_sem_release
    mem.o(i.rt_free) refers to mem.o(.data) for .data
    mem.o(i.rt_free) refers to mem.o(.bss) for .bss
    mem.o(i.rt_malloc) refers to ipc.o(i.rt_sem_take) for rt_sem_take
    mem.o(i.rt_malloc) refers to ipc.o(i.rt_sem_release) for rt_sem_release
    mem.o(i.rt_malloc) refers to mem.o(.data) for .data
    mem.o(i.rt_malloc) refers to mem.o(.bss) for .bss
    mem.o(i.rt_memory_info) refers to mem.o(.data) for .data
    mem.o(i.rt_realloc) refers to ipc.o(i.rt_sem_take) for rt_sem_take
    mem.o(i.rt_realloc) refers to ipc.o(i.rt_sem_release) for rt_sem_release
    mem.o(i.rt_realloc) refers to mem.o(i.rt_free) for rt_free
    mem.o(i.rt_realloc) refers to mem.o(i.rt_malloc) for rt_malloc
    mem.o(i.rt_realloc) refers to mem.o(i.plug_holes) for plug_holes
    mem.o(i.rt_realloc) refers to kservice.o(i.rt_memcpy) for rt_memcpy
    mem.o(i.rt_realloc) refers to mem.o(.data) for .data
    mem.o(i.rt_realloc) refers to mem.o(.bss) for .bss
    mem.o(i.rt_system_heap_init) refers to ipc.o(i.rt_sem_init) for rt_sem_init
    mem.o(i.rt_system_heap_init) refers to kservice.o(i.rt_kprintf) for rt_kprintf
    mem.o(i.rt_system_heap_init) refers to mem.o(.data) for .data
    mem.o(i.rt_system_heap_init) refers to mem.o(.bss) for .bss
    mem.o(FSymTab) refers to mem.o(.rodata.name) for __fsym_list_mem_name
    mem.o(FSymTab) refers to mem.o(.rodata.name) for __fsym_list_mem_desc
    mem.o(FSymTab) refers to mem.o(i.list_mem) for list_mem
    object.o(i.rt_object_allocate) refers to object.o(i.rt_object_get_information) for rt_object_get_information
    object.o(i.rt_object_allocate) refers to mem.o(i.rt_malloc) for rt_malloc
    object.o(i.rt_object_allocate) refers to kservice.o(i.rt_memset) for rt_memset
    object.o(i.rt_object_allocate) refers to kservice.o(i.rt_strncpy) for rt_strncpy
    object.o(i.rt_object_allocate) refers to context_rvds.o(.text) for rt_hw_interrupt_disable
    object.o(i.rt_object_allocate) refers to object.o(i.rt_list_insert_after) for rt_list_insert_after
    object.o(i.rt_object_delete) refers to context_rvds.o(.text) for rt_hw_interrupt_disable
    object.o(i.rt_object_delete) refers to object.o(i.rt_list_remove) for rt_list_remove
    object.o(i.rt_object_delete) refers to mem.o(i.rt_free) for rt_free
    object.o(i.rt_object_detach) refers to context_rvds.o(.text) for rt_hw_interrupt_disable
    object.o(i.rt_object_detach) refers to object.o(i.rt_list_remove) for rt_list_remove
    object.o(i.rt_object_find) refers to object.o(i.rt_object_get_information) for rt_object_get_information
    object.o(i.rt_object_find) refers to scheduler.o(i.rt_enter_critical) for rt_enter_critical
    object.o(i.rt_object_find) refers to kservice.o(i.rt_strncmp) for rt_strncmp
    object.o(i.rt_object_find) refers to scheduler.o(i.rt_exit_critical) for rt_exit_critical
    object.o(i.rt_object_get_information) refers to object.o(.data) for .data
    object.o(i.rt_object_get_length) refers to object.o(i.rt_object_get_information) for rt_object_get_information
    object.o(i.rt_object_get_length) refers to context_rvds.o(.text) for rt_hw_interrupt_disable
    object.o(i.rt_object_get_pointers) refers to object.o(i.rt_object_get_information) for rt_object_get_information
    object.o(i.rt_object_get_pointers) refers to context_rvds.o(.text) for rt_hw_interrupt_disable
    object.o(i.rt_object_init) refers to object.o(i.rt_object_get_information) for rt_object_get_information
    object.o(i.rt_object_init) refers to scheduler.o(i.rt_enter_critical) for rt_enter_critical
    object.o(i.rt_object_init) refers to scheduler.o(i.rt_exit_critical) for rt_exit_critical
    object.o(i.rt_object_init) refers to kservice.o(i.rt_strncpy) for rt_strncpy
    object.o(i.rt_object_init) refers to context_rvds.o(.text) for rt_hw_interrupt_disable
    object.o(i.rt_object_init) refers to object.o(i.rt_list_insert_after) for rt_list_insert_after
    scheduler.o(i.rt_critical_level) refers to scheduler.o(.data) for .data
    scheduler.o(i.rt_enter_critical) refers to context_rvds.o(.text) for rt_hw_interrupt_disable
    scheduler.o(i.rt_enter_critical) refers to scheduler.o(.data) for .data
    scheduler.o(i.rt_exit_critical) refers to context_rvds.o(.text) for rt_hw_interrupt_disable
    scheduler.o(i.rt_exit_critical) refers to scheduler.o(i.rt_schedule) for rt_schedule
    scheduler.o(i.rt_exit_critical) refers to scheduler.o(.data) for .data
    scheduler.o(i.rt_schedule) refers to context_rvds.o(.text) for rt_hw_interrupt_disable
    scheduler.o(i.rt_schedule) refers to kservice.o(i.__rt_ffs) for __rt_ffs
    scheduler.o(i.rt_schedule) refers to scheduler.o(.data) for .data
    scheduler.o(i.rt_schedule) refers to scheduler.o(.bss) for .bss
    scheduler.o(i.rt_schedule) refers to irq.o(.data) for rt_interrupt_nest
    scheduler.o(i.rt_schedule_insert_thread) refers to context_rvds.o(.text) for rt_hw_interrupt_disable
    scheduler.o(i.rt_schedule_insert_thread) refers to scheduler.o(.bss) for .bss
    scheduler.o(i.rt_schedule_insert_thread) refers to scheduler.o(.data) for .data
    scheduler.o(i.rt_schedule_remove_thread) refers to context_rvds.o(.text) for rt_hw_interrupt_disable
    scheduler.o(i.rt_schedule_remove_thread) refers to scheduler.o(.bss) for .bss
    scheduler.o(i.rt_schedule_remove_thread) refers to scheduler.o(.data) for .data
    scheduler.o(i.rt_system_scheduler_init) refers to scheduler.o(.data) for .data
    scheduler.o(i.rt_system_scheduler_init) refers to scheduler.o(.bss) for .bss
    scheduler.o(i.rt_system_scheduler_start) refers to kservice.o(i.__rt_ffs) for __rt_ffs
    scheduler.o(i.rt_system_scheduler_start) refers to context_rvds.o(.text) for rt_hw_context_switch_to
    scheduler.o(i.rt_system_scheduler_start) refers to scheduler.o(.data) for .data
    scheduler.o(i.rt_system_scheduler_start) refers to scheduler.o(.bss) for .bss
    thread.o(i._rt_thread_init) refers to kservice.o(i.rt_memset) for rt_memset
    thread.o(i._rt_thread_init) refers to cpuport.o(i.rt_hw_stack_init) for rt_hw_stack_init
    thread.o(i._rt_thread_init) refers to timer.o(i.rt_timer_init) for rt_timer_init
    thread.o(i._rt_thread_init) refers to thread.o(i.rt_thread_exit) for rt_thread_exit
    thread.o(i._rt_thread_init) refers to thread.o(i.rt_thread_timeout) for rt_thread_timeout
    thread.o(i._thread_cleanup_execute) refers to context_rvds.o(.text) for rt_hw_interrupt_disable
    thread.o(i.rt_thread_control) refers to context_rvds.o(.text) for rt_hw_interrupt_disable
    thread.o(i.rt_thread_control) refers to scheduler.o(i.rt_schedule_remove_thread) for rt_schedule_remove_thread
    thread.o(i.rt_thread_control) refers to scheduler.o(i.rt_schedule_insert_thread) for rt_schedule_insert_thread
    thread.o(i.rt_thread_control) refers to thread.o(i.rt_thread_startup) for rt_thread_startup
    thread.o(i.rt_thread_control) refers to object.o(i.rt_object_is_systemobject) for rt_object_is_systemobject
    thread.o(i.rt_thread_control) refers to thread.o(i.rt_thread_delete) for rt_thread_delete
    thread.o(i.rt_thread_control) refers to thread.o(i.rt_thread_detach) for rt_thread_detach
    thread.o(i.rt_thread_create) refers to object.o(i.rt_object_allocate) for rt_object_allocate
    thread.o(i.rt_thread_create) refers to mem.o(i.rt_malloc) for rt_malloc
    thread.o(i.rt_thread_create) refers to thread.o(i._rt_thread_init) for _rt_thread_init
    thread.o(i.rt_thread_create) refers to object.o(i.rt_object_delete) for rt_object_delete
    thread.o(i.rt_thread_delay) refers to thread.o(i.rt_thread_sleep) for rt_thread_sleep
    thread.o(i.rt_thread_delay_until) refers to context_rvds.o(.text) for rt_hw_interrupt_disable
    thread.o(i.rt_thread_delay_until) refers to clock.o(i.rt_tick_get) for rt_tick_get
    thread.o(i.rt_thread_delay_until) refers to thread.o(i.rt_thread_suspend) for rt_thread_suspend
    thread.o(i.rt_thread_delay_until) refers to timer.o(i.rt_timer_control) for rt_timer_control
    thread.o(i.rt_thread_delay_until) refers to timer.o(i.rt_timer_start) for rt_timer_start
    thread.o(i.rt_thread_delay_until) refers to scheduler.o(i.rt_schedule) for rt_schedule
    thread.o(i.rt_thread_delay_until) refers to scheduler.o(.data) for rt_current_thread
    thread.o(i.rt_thread_delete) refers to scheduler.o(i.rt_schedule_remove_thread) for rt_schedule_remove_thread
    thread.o(i.rt_thread_delete) refers to thread.o(i._thread_cleanup_execute) for _thread_cleanup_execute
    thread.o(i.rt_thread_delete) refers to timer.o(i.rt_timer_detach) for rt_timer_detach
    thread.o(i.rt_thread_delete) refers to context_rvds.o(.text) for rt_hw_interrupt_disable
    thread.o(i.rt_thread_delete) refers to thread.o(i.rt_list_insert_after) for rt_list_insert_after
    thread.o(i.rt_thread_delete) refers to scheduler.o(.data) for rt_thread_defunct
    thread.o(i.rt_thread_detach) refers to scheduler.o(i.rt_schedule_remove_thread) for rt_schedule_remove_thread
    thread.o(i.rt_thread_detach) refers to thread.o(i._thread_cleanup_execute) for _thread_cleanup_execute
    thread.o(i.rt_thread_detach) refers to timer.o(i.rt_timer_detach) for rt_timer_detach
    thread.o(i.rt_thread_detach) refers to object.o(i.rt_object_is_systemobject) for rt_object_is_systemobject
    thread.o(i.rt_thread_detach) refers to context_rvds.o(.text) for rt_hw_interrupt_disable
    thread.o(i.rt_thread_detach) refers to thread.o(i.rt_list_insert_after) for rt_list_insert_after
    thread.o(i.rt_thread_detach) refers to object.o(i.rt_object_detach) for rt_object_detach
    thread.o(i.rt_thread_detach) refers to scheduler.o(.data) for rt_thread_defunct
    thread.o(i.rt_thread_exit) refers to context_rvds.o(.text) for rt_hw_interrupt_disable
    thread.o(i.rt_thread_exit) refers to thread.o(i._thread_cleanup_execute) for _thread_cleanup_execute
    thread.o(i.rt_thread_exit) refers to scheduler.o(i.rt_schedule_remove_thread) for rt_schedule_remove_thread
    thread.o(i.rt_thread_exit) refers to timer.o(i.rt_timer_detach) for rt_timer_detach
    thread.o(i.rt_thread_exit) refers to object.o(i.rt_object_is_systemobject) for rt_object_is_systemobject
    thread.o(i.rt_thread_exit) refers to thread.o(i.rt_list_insert_after) for rt_list_insert_after
    thread.o(i.rt_thread_exit) refers to scheduler.o(i.rt_schedule) for rt_schedule
    thread.o(i.rt_thread_exit) refers to object.o(i.rt_object_detach) for rt_object_detach
    thread.o(i.rt_thread_exit) refers to scheduler.o(.data) for rt_current_thread
    thread.o(i.rt_thread_find) refers to object.o(i.rt_object_find) for rt_object_find
    thread.o(i.rt_thread_init) refers to object.o(i.rt_object_init) for rt_object_init
    thread.o(i.rt_thread_init) refers to thread.o(i._rt_thread_init) for _rt_thread_init
    thread.o(i.rt_thread_mdelay) refers to clock.o(i.rt_tick_from_millisecond) for rt_tick_from_millisecond
    thread.o(i.rt_thread_mdelay) refers to thread.o(i.rt_thread_sleep) for rt_thread_sleep
    thread.o(i.rt_thread_resume) refers to context_rvds.o(.text) for rt_hw_interrupt_disable
    thread.o(i.rt_thread_resume) refers to thread.o(i.rt_list_remove) for rt_list_remove
    thread.o(i.rt_thread_resume) refers to timer.o(i.rt_timer_stop) for rt_timer_stop
    thread.o(i.rt_thread_resume) refers to scheduler.o(i.rt_schedule_insert_thread) for rt_schedule_insert_thread
    thread.o(i.rt_thread_self) refers to scheduler.o(.data) for rt_current_thread
    thread.o(i.rt_thread_sleep) refers to context_rvds.o(.text) for rt_hw_interrupt_disable
    thread.o(i.rt_thread_sleep) refers to thread.o(i.rt_thread_suspend) for rt_thread_suspend
    thread.o(i.rt_thread_sleep) refers to timer.o(i.rt_timer_control) for rt_timer_control
    thread.o(i.rt_thread_sleep) refers to timer.o(i.rt_timer_start) for rt_timer_start
    thread.o(i.rt_thread_sleep) refers to scheduler.o(i.rt_schedule) for rt_schedule
    thread.o(i.rt_thread_sleep) refers to scheduler.o(.data) for rt_current_thread
    thread.o(i.rt_thread_startup) refers to thread.o(i.rt_thread_resume) for rt_thread_resume
    thread.o(i.rt_thread_startup) refers to scheduler.o(i.rt_schedule) for rt_schedule
    thread.o(i.rt_thread_startup) refers to scheduler.o(.data) for rt_current_thread
    thread.o(i.rt_thread_suspend) refers to context_rvds.o(.text) for rt_hw_interrupt_disable
    thread.o(i.rt_thread_suspend) refers to scheduler.o(i.rt_schedule_remove_thread) for rt_schedule_remove_thread
    thread.o(i.rt_thread_suspend) refers to timer.o(i.rt_timer_stop) for rt_timer_stop
    thread.o(i.rt_thread_timeout) refers to thread.o(i.rt_list_remove) for rt_list_remove
    thread.o(i.rt_thread_timeout) refers to scheduler.o(i.rt_schedule_insert_thread) for rt_schedule_insert_thread
    thread.o(i.rt_thread_timeout) refers to scheduler.o(i.rt_schedule) for rt_schedule
    thread.o(i.rt_thread_yield) refers to context_rvds.o(.text) for rt_hw_interrupt_disable
    thread.o(i.rt_thread_yield) refers to thread.o(i.rt_list_remove) for rt_list_remove
    thread.o(i.rt_thread_yield) refers to scheduler.o(i.rt_schedule) for rt_schedule
    thread.o(i.rt_thread_yield) refers to scheduler.o(.data) for rt_current_thread
    thread.o(i.rt_thread_yield) refers to scheduler.o(.bss) for rt_thread_priority_table
    timer.o(i._rt_timer_remove) refers to timer.o(i.rt_list_remove) for rt_list_remove
    timer.o(i.rt_system_timer_init) refers to timer.o(.data) for .data
    timer.o(i.rt_timer_check) refers to clock.o(i.rt_tick_get) for rt_tick_get
    timer.o(i.rt_timer_check) refers to context_rvds.o(.text) for rt_hw_interrupt_disable
    timer.o(i.rt_timer_check) refers to timer.o(i._rt_timer_remove) for _rt_timer_remove
    timer.o(i.rt_timer_check) refers to timer.o(i.rt_list_insert_after) for rt_list_insert_after
    timer.o(i.rt_timer_check) refers to timer.o(i.rt_list_isempty) for rt_list_isempty
    timer.o(i.rt_timer_check) refers to timer.o(i.rt_list_remove) for rt_list_remove
    timer.o(i.rt_timer_check) refers to timer.o(i.rt_timer_start) for rt_timer_start
    timer.o(i.rt_timer_check) refers to timer.o(.data) for .data
    timer.o(i.rt_timer_control) refers to context_rvds.o(.text) for rt_hw_interrupt_disable
    timer.o(i.rt_timer_create) refers to object.o(i.rt_object_allocate) for rt_object_allocate
    timer.o(i.rt_timer_create) refers to timer.o(i._rt_timer_init) for _rt_timer_init
    timer.o(i.rt_timer_delete) refers to context_rvds.o(.text) for rt_hw_interrupt_disable
    timer.o(i.rt_timer_delete) refers to timer.o(i._rt_timer_remove) for _rt_timer_remove
    timer.o(i.rt_timer_delete) refers to object.o(i.rt_object_delete) for rt_object_delete
    timer.o(i.rt_timer_detach) refers to context_rvds.o(.text) for rt_hw_interrupt_disable
    timer.o(i.rt_timer_detach) refers to timer.o(i._rt_timer_remove) for _rt_timer_remove
    timer.o(i.rt_timer_detach) refers to object.o(i.rt_object_detach) for rt_object_detach
    timer.o(i.rt_timer_init) refers to object.o(i.rt_object_init) for rt_object_init
    timer.o(i.rt_timer_init) refers to timer.o(i._rt_timer_init) for _rt_timer_init
    timer.o(i.rt_timer_next_timeout_tick) refers to context_rvds.o(.text) for rt_hw_interrupt_disable
    timer.o(i.rt_timer_next_timeout_tick) refers to timer.o(i.rt_list_isempty) for rt_list_isempty
    timer.o(i.rt_timer_next_timeout_tick) refers to timer.o(.data) for .data
    timer.o(i.rt_timer_start) refers to context_rvds.o(.text) for rt_hw_interrupt_disable
    timer.o(i.rt_timer_start) refers to timer.o(i._rt_timer_remove) for _rt_timer_remove
    timer.o(i.rt_timer_start) refers to clock.o(i.rt_tick_get) for rt_tick_get
    timer.o(i.rt_timer_start) refers to timer.o(i.rt_list_insert_after) for rt_list_insert_after
    timer.o(i.rt_timer_start) refers to timer.o(.data) for .data
    timer.o(i.rt_timer_stop) refers to context_rvds.o(.text) for rt_hw_interrupt_disable
    timer.o(i.rt_timer_stop) refers to timer.o(i._rt_timer_remove) for _rt_timer_remove
    board.o(i.rt_heap_begin_get) refers to board.o(.bss) for .bss
    board.o(i.rt_heap_end_get) refers to board.o(.bss) for .bss
    board.o(i.rt_hw_board_init) refers to components.o(i.rt_components_board_init) for rt_components_board_init
    board.o(i.rt_hw_board_init) refers to board.o(i.rt_heap_end_get) for rt_heap_end_get
    board.o(i.rt_hw_board_init) refers to board.o(i.rt_heap_begin_get) for rt_heap_begin_get
    board.o(i.rt_hw_board_init) refers to mem.o(i.rt_system_heap_init) for rt_system_heap_init
    board.o(i.rt_hw_console_output) refers to scheduler.o(i.rt_enter_critical) for rt_enter_critical
    board.o(i.rt_hw_console_output) refers to stm32f4xx_usart.o(i.USART_SendData) for USART_SendData
    board.o(i.rt_hw_console_output) refers to stm32f4xx_usart.o(i.USART_ClearITPendingBit) for USART_ClearITPendingBit
    board.o(i.rt_hw_console_output) refers to stm32f4xx_usart.o(i.USART_GetFlagStatus) for USART_GetFlagStatus
    board.o(i.rt_hw_console_output) refers to scheduler.o(i.rt_exit_critical) for rt_exit_critical
    board.o(i.rt_os_tick_callback) refers to irq.o(i.rt_interrupt_enter) for rt_interrupt_enter
    board.o(i.rt_os_tick_callback) refers to clock.o(i.rt_tick_increase) for rt_tick_increase
    board.o(i.rt_os_tick_callback) refers to irq.o(i.rt_interrupt_leave) for rt_interrupt_leave
    board.o(i.uart_init) refers to usart.o(i.usart_init) for usart_init
    board.o(.rti_fn.1) refers to board.o(i.uart_init) for uart_init
    vsnprintf.o(.text) refers (Special) to _printf_a.o(.ARM.Collect$$_printf_percent$$00000006) for _printf_a
    vsnprintf.o(.text) refers (Special) to _printf_c.o(.ARM.Collect$$_printf_percent$$00000013) for _printf_c
    vsnprintf.o(.text) refers (Special) to _printf_charcount.o(.text) for _printf_charcount
    vsnprintf.o(.text) refers (Special) to _printf_d.o(.ARM.Collect$$_printf_percent$$00000009) for _printf_d
    vsnprintf.o(.text) refers (Special) to _printf_e.o(.ARM.Collect$$_printf_percent$$00000004) for _printf_e
    vsnprintf.o(.text) refers (Special) to _printf_f.o(.ARM.Collect$$_printf_percent$$00000003) for _printf_f
    vsnprintf.o(.text) refers (Special) to printf1.o(x$fpl$printf1) for _printf_fp_dec
    vsnprintf.o(.text) refers (Special) to printf2.o(x$fpl$printf2) for _printf_fp_hex
    vsnprintf.o(.text) refers (Special) to _printf_g.o(.ARM.Collect$$_printf_percent$$00000005) for _printf_g
    vsnprintf.o(.text) refers (Special) to _printf_i.o(.ARM.Collect$$_printf_percent$$00000008) for _printf_i
    vsnprintf.o(.text) refers (Special) to _printf_dec.o(.text) for _printf_int_dec
    vsnprintf.o(.text) refers (Special) to _printf_l.o(.ARM.Collect$$_printf_percent$$00000012) for _printf_l
    vsnprintf.o(.text) refers (Special) to _printf_lc.o(.ARM.Collect$$_printf_percent$$00000015) for _printf_lc
    vsnprintf.o(.text) refers (Special) to _printf_ll.o(.ARM.Collect$$_printf_percent$$00000007) for _printf_ll
    vsnprintf.o(.text) refers (Special) to _printf_lld.o(.ARM.Collect$$_printf_percent$$0000000E) for _printf_lld
    vsnprintf.o(.text) refers (Special) to _printf_lli.o(.ARM.Collect$$_printf_percent$$0000000D) for _printf_lli
    vsnprintf.o(.text) refers (Special) to _printf_llo.o(.ARM.Collect$$_printf_percent$$00000010) for _printf_llo
    vsnprintf.o(.text) refers (Special) to _printf_llu.o(.ARM.Collect$$_printf_percent$$0000000F) for _printf_llu
    vsnprintf.o(.text) refers (Special) to _printf_llx.o(.ARM.Collect$$_printf_percent$$00000011) for _printf_llx
    vsnprintf.o(.text) refers (Special) to _printf_longlong_dec.o(.text) for _printf_longlong_dec
    vsnprintf.o(.text) refers (Special) to _printf_hex_int_ll_ptr.o(.text) for _printf_longlong_hex
    vsnprintf.o(.text) refers (Special) to _printf_oct_int_ll.o(.text) for _printf_longlong_oct
    vsnprintf.o(.text) refers (Special) to _printf_ls.o(.ARM.Collect$$_printf_percent$$00000016) for _printf_ls
    vsnprintf.o(.text) refers (Special) to _printf_n.o(.ARM.Collect$$_printf_percent$$00000001) for _printf_n
    vsnprintf.o(.text) refers (Special) to _printf_o.o(.ARM.Collect$$_printf_percent$$0000000B) for _printf_o
    vsnprintf.o(.text) refers (Special) to _printf_p.o(.ARM.Collect$$_printf_percent$$00000002) for _printf_p
    vsnprintf.o(.text) refers (Special) to _printf_percent.o(.ARM.Collect$$_printf_percent$$00000000) for _printf_percent
    vsnprintf.o(.text) refers (Special) to _printf_pad.o(.text) for _printf_post_padding
    vsnprintf.o(.text) refers (Special) to _printf_s.o(.ARM.Collect$$_printf_percent$$00000014) for _printf_s
    vsnprintf.o(.text) refers (Special) to _printf_str.o(.text) for _printf_str
    vsnprintf.o(.text) refers (Special) to _printf_truncate.o(.text) for _printf_truncate_signed
    vsnprintf.o(.text) refers (Special) to _printf_u.o(.ARM.Collect$$_printf_percent$$0000000A) for _printf_u
    vsnprintf.o(.text) refers (Special) to _printf_wctomb.o(.text) for _printf_wctomb
    vsnprintf.o(.text) refers (Special) to _printf_x.o(.ARM.Collect$$_printf_percent$$0000000C) for _printf_x
    vsnprintf.o(.text) refers to _printf_char_common.o(.text) for _printf_char_common
    vsnprintf.o(.text) refers to _sputc.o(.text) for _sputc
    vsnprintf.o(.text) refers to _snputc.o(.text) for _snputc
    __2sprintf.o(.text) refers to _printf_char_common.o(.text) for _printf_char_common
    __2sprintf.o(.text) refers to _sputc.o(.text) for _sputc
    noretval__2sprintf.o(.text) refers to _printf_char_common.o(.text) for _printf_char_common
    noretval__2sprintf.o(.text) refers to _sputc.o(.text) for _sputc
    __printf.o(.text) refers to _printf_percent.o(.ARM.Collect$$_printf_percent$$00000000) for _printf_percent
    _printf_str.o(.text) refers (Special) to _printf_char.o(.text) for _printf_cs_common
    _printf_str.o(.text) refers (Weak) to _printf_pad.o(.text) for _printf_pre_padding
    _printf_str.o(.text) refers (Weak) to _printf_pad.o(.text) for _printf_post_padding
    __printf_flags.o(.text) refers to _printf_percent.o(.ARM.Collect$$_printf_percent$$00000000) for _printf_percent
    __printf_flags.o(.text) refers to __printf_flags.o(.constdata) for .constdata
    __printf_ss.o(.text) refers to _printf_percent.o(.ARM.Collect$$_printf_percent$$00000000) for _printf_percent
    __printf_flags_ss.o(.text) refers to _printf_percent.o(.ARM.Collect$$_printf_percent$$00000000) for _printf_percent
    __printf_flags_ss.o(.text) refers to __printf_flags_ss.o(.constdata) for .constdata
    __printf_wp.o(.text) refers to __printf_wp.o(i._is_digit) for _is_digit
    __printf_wp.o(.text) refers to _printf_percent.o(.ARM.Collect$$_printf_percent$$00000000) for _printf_percent
    __printf_flags_wp.o(.text) refers to __printf_wp.o(i._is_digit) for _is_digit
    __printf_flags_wp.o(.text) refers to _printf_percent.o(.ARM.Collect$$_printf_percent$$00000000) for _printf_percent
    __printf_flags_wp.o(.text) refers to __printf_flags_wp.o(.constdata) for .constdata
    __printf_ss_wp.o(.text) refers to __printf_wp.o(i._is_digit) for _is_digit
    __printf_ss_wp.o(.text) refers to _printf_percent.o(.ARM.Collect$$_printf_percent$$00000000) for _printf_percent
    __printf_flags_ss_wp.o(.text) refers to __printf_wp.o(i._is_digit) for _is_digit
    __printf_flags_ss_wp.o(.text) refers to _printf_percent.o(.ARM.Collect$$_printf_percent$$00000000) for _printf_percent
    __printf_flags_ss_wp.o(.text) refers to __printf_flags_ss_wp.o(.constdata) for .constdata
    _printf_s.o(.ARM.Collect$$_printf_percent$$00000014) refers (Weak) to _printf_char.o(.text) for _printf_string
    _printf_f.o(.ARM.Collect$$_printf_percent$$00000003) refers (Weak) to printf1.o(x$fpl$printf1) for _printf_fp_dec
    _printf_percent.o(.ARM.Collect$$_printf_percent$$00000000) refers (Special) to _printf_percent_end.o(.ARM.Collect$$_printf_percent$$00000017) for _printf_percent_end
    rt_memclr.o(.text) refers to rt_memclr_w.o(.text) for _memset_w
    strncpy.o(.text) refers to rt_memclr.o(.text) for __aeabi_memclr
    __main.o(!!!main) refers to __rtentry.o(.ARM.Collect$$rtentry$$00000000) for __rt_entry
    f2d.o(x$fpl$f2d) refers (Special) to usenofp.o(x$fpl$usenofp) for __I$use$fp
    f2d.o(x$fpl$f2d) refers to fnaninf.o(x$fpl$fnaninf) for __fpl_fnaninf
    f2d.o(x$fpl$f2d) refers to dretinf.o(x$fpl$dretinf) for __fpl_dretinf
    printf1.o(x$fpl$printf1) refers to _printf_fp_dec.o(.text) for _printf_fp_dec_real
    __rtentry.o(.ARM.Collect$$rtentry$$00000000) refers (Special) to __rtentry2.o(.ARM.Collect$$rtentry$$0000000A) for __rt_entry_li
    __rtentry.o(.ARM.Collect$$rtentry$$00000000) refers (Special) to __rtentry2.o(.ARM.Collect$$rtentry$$0000000D) for __rt_entry_main
    __rtentry.o(.ARM.Collect$$rtentry$$00000000) refers (Special) to __rtentry2.o(.ARM.Collect$$rtentry$$0000000C) for __rt_entry_postli_1
    __rtentry.o(.ARM.Collect$$rtentry$$00000000) refers (Special) to __rtentry2.o(.ARM.Collect$$rtentry$$00000009) for __rt_entry_postsh_1
    __rtentry.o(.ARM.Collect$$rtentry$$00000000) refers (Special) to __rtentry2.o(.ARM.Collect$$rtentry$$00000002) for __rt_entry_presh_1
    __rtentry.o(.ARM.Collect$$rtentry$$00000000) refers (Special) to __rtentry4.o(.ARM.Collect$$rtentry$$00000004) for __rt_entry_sh
    _printf_dec.o(.text) refers (Weak) to _printf_truncate.o(.text) for _printf_truncate_signed
    _printf_dec.o(.text) refers (Weak) to _printf_truncate.o(.text) for _printf_truncate_unsigned
    _printf_dec.o(.text) refers to _printf_intcommon.o(.text) for _printf_int_common
    _printf_fp_dec.o(.text) refers (Special) to usenofp.o(x$fpl$usenofp) for __I$use$fp
    _printf_fp_dec.o(.text) refers (Special) to lc_numeric_c.o(locale$$code) for _get_lc_numeric
    _printf_fp_dec.o(.text) refers to bigflt0.o(.text) for _btod_etento
    _printf_fp_dec.o(.text) refers to btod.o(CL$$btod_d2e) for _btod_d2e
    _printf_fp_dec.o(.text) refers to btod.o(CL$$btod_ediv) for _btod_ediv
    _printf_fp_dec.o(.text) refers to btod.o(CL$$btod_emul) for _btod_emul
    _printf_fp_dec.o(.text) refers to lludiv10.o(.text) for _ll_udiv10
    _printf_fp_dec.o(.text) refers to fpclassify.o(i.__ARM_fpclassify) for __ARM_fpclassify
    _printf_fp_dec.o(.text) refers to _printf_fp_infnan.o(.text) for _printf_fp_infnan
    _printf_fp_dec.o(.text) refers (Weak) to _printf_pad.o(.text) for _printf_pre_padding
    _printf_fp_dec.o(.text) refers (Weak) to _printf_pad.o(.text) for _printf_pre_padding
    _printf_fp_dec.o(.text) refers to rt_locale_intlibspace.o(.text) for __rt_locale
    _printf_fp_dec.o(.text) refers (Weak) to _printf_pad.o(.text) for _printf_post_padding
    _printf_char_common.o(.text) refers to __printf_flags_ss_wp.o(.text) for __printf
    _printf_char.o(.text) refers (Weak) to _printf_str.o(.text) for _printf_str
    _printf_wctomb.o(.text) refers (Special) to _printf_wchar.o(.text) for _printf_lcs_common
    _printf_wctomb.o(.text) refers to _wcrtomb.o(.text) for _wcrtomb
    _printf_wctomb.o(.text) refers (Weak) to _printf_pad.o(.text) for _printf_pre_padding
    _printf_wctomb.o(.text) refers (Weak) to _printf_pad.o(.text) for _printf_post_padding
    _printf_wctomb.o(.text) refers to _printf_wctomb.o(.constdata) for .constdata
    _printf_wctomb.o(.constdata) refers (Special) to _printf_wchar.o(.text) for _printf_lcs_common
    _printf_longlong_dec.o(.text) refers to lludiv10.o(.text) for _ll_udiv10
    _printf_longlong_dec.o(.text) refers to _printf_intcommon.o(.text) for _printf_int_common
    _printf_oct_ll.o(.text) refers to _printf_intcommon.o(.text) for _printf_int_common
    _printf_oct_int.o(.text) refers (Weak) to _printf_truncate.o(.text) for _printf_truncate_unsigned
    _printf_oct_int.o(.text) refers to _printf_intcommon.o(.text) for _printf_int_common
    _printf_oct_int_ll.o(.text) refers to _printf_intcommon.o(.text) for _printf_int_common
    _printf_oct_int_ll.o(.text) refers (Weak) to _printf_truncate.o(.text) for _printf_truncate_unsigned
    _printf_hex_ll.o(.text) refers to _printf_intcommon.o(.text) for _printf_int_common
    _printf_hex_ll.o(.text) refers to _printf_hex_ll.o(.constdata) for .constdata
    _printf_hex_int.o(.text) refers (Weak) to _printf_truncate.o(.text) for _printf_truncate_unsigned
    _printf_hex_int.o(.text) refers to _printf_intcommon.o(.text) for _printf_int_common
    _printf_hex_int.o(.text) refers to _printf_hex_int.o(.constdata) for .constdata
    _printf_hex_int_ll.o(.text) refers to _printf_intcommon.o(.text) for _printf_int_common
    _printf_hex_int_ll.o(.text) refers (Weak) to _printf_truncate.o(.text) for _printf_truncate_unsigned
    _printf_hex_int_ll.o(.text) refers to _printf_hex_int_ll.o(.constdata) for .constdata
    _printf_hex_ptr.o(.text) refers to _printf_intcommon.o(.text) for _printf_int_common
    _printf_hex_ptr.o(.text) refers to _printf_hex_ptr.o(.constdata) for .constdata
    _printf_hex_int_ptr.o(.text) refers to _printf_intcommon.o(.text) for _printf_int_common
    _printf_hex_int_ptr.o(.text) refers (Weak) to _printf_truncate.o(.text) for _printf_truncate_unsigned
    _printf_hex_int_ptr.o(.text) refers to _printf_hex_int_ptr.o(.constdata) for .constdata
    _printf_hex_ll_ptr.o(.text) refers to _printf_intcommon.o(.text) for _printf_int_common
    _printf_hex_ll_ptr.o(.text) refers to _printf_hex_ll_ptr.o(.constdata) for .constdata
    _printf_hex_int_ll_ptr.o(.text) refers to _printf_intcommon.o(.text) for _printf_int_common
    _printf_hex_int_ll_ptr.o(.text) refers (Weak) to _printf_truncate.o(.text) for _printf_truncate_unsigned
    _printf_hex_int_ll_ptr.o(.text) refers to _printf_hex_int_ll_ptr.o(.constdata) for .constdata
    _printf_c.o(.ARM.Collect$$_printf_percent$$00000013) refers (Weak) to _printf_char.o(.text) for _printf_char
    _printf_n.o(.ARM.Collect$$_printf_percent$$00000001) refers (Weak) to _printf_charcount.o(.text) for _printf_charcount
    _printf_x.o(.ARM.Collect$$_printf_percent$$0000000C) refers (Weak) to _printf_hex_int_ll_ptr.o(.text) for _printf_int_hex
    _printf_p.o(.ARM.Collect$$_printf_percent$$00000002) refers (Weak) to _printf_hex_int_ll_ptr.o(.text) for _printf_hex_ptr
    _printf_o.o(.ARM.Collect$$_printf_percent$$0000000B) refers (Weak) to _printf_oct_int_ll.o(.text) for _printf_int_oct
    _printf_i.o(.ARM.Collect$$_printf_percent$$00000008) refers (Weak) to _printf_dec.o(.text) for _printf_int_dec
    _printf_d.o(.ARM.Collect$$_printf_percent$$00000009) refers (Weak) to _printf_dec.o(.text) for _printf_int_dec
    _printf_u.o(.ARM.Collect$$_printf_percent$$0000000A) refers (Weak) to _printf_dec.o(.text) for _printf_int_dec
    _printf_e.o(.ARM.Collect$$_printf_percent$$00000004) refers (Weak) to printf1.o(x$fpl$printf1) for _printf_fp_dec
    _printf_g.o(.ARM.Collect$$_printf_percent$$00000005) refers (Weak) to printf1.o(x$fpl$printf1) for _printf_fp_dec
    _printf_a.o(.ARM.Collect$$_printf_percent$$00000006) refers (Weak) to printf2.o(x$fpl$printf2) for _printf_fp_hex
    _printf_lli.o(.ARM.Collect$$_printf_percent$$0000000D) refers (Special) to _printf_ll.o(.ARM.Collect$$_printf_percent$$00000007) for _printf_ll
    _printf_lli.o(.ARM.Collect$$_printf_percent$$0000000D) refers (Weak) to _printf_longlong_dec.o(.text) for _printf_longlong_dec
    _printf_lld.o(.ARM.Collect$$_printf_percent$$0000000E) refers (Special) to _printf_ll.o(.ARM.Collect$$_printf_percent$$00000007) for _printf_ll
    _printf_lld.o(.ARM.Collect$$_printf_percent$$0000000E) refers (Weak) to _printf_longlong_dec.o(.text) for _printf_longlong_dec
    _printf_llu.o(.ARM.Collect$$_printf_percent$$0000000F) refers (Special) to _printf_ll.o(.ARM.Collect$$_printf_percent$$00000007) for _printf_ll
    _printf_llu.o(.ARM.Collect$$_printf_percent$$0000000F) refers (Weak) to _printf_longlong_dec.o(.text) for _printf_longlong_dec
    _printf_lc.o(.ARM.Collect$$_printf_percent$$00000015) refers (Special) to _printf_l.o(.ARM.Collect$$_printf_percent$$00000012) for _printf_l
    _printf_lc.o(.ARM.Collect$$_printf_percent$$00000015) refers (Weak) to _printf_wchar.o(.text) for _printf_wchar
    _printf_ls.o(.ARM.Collect$$_printf_percent$$00000016) refers (Special) to _printf_l.o(.ARM.Collect$$_printf_percent$$00000012) for _printf_l
    _printf_ls.o(.ARM.Collect$$_printf_percent$$00000016) refers (Weak) to _printf_wchar.o(.text) for _printf_wstring
    _printf_llo.o(.ARM.Collect$$_printf_percent$$00000010) refers (Special) to _printf_ll.o(.ARM.Collect$$_printf_percent$$00000007) for _printf_ll
    _printf_llo.o(.ARM.Collect$$_printf_percent$$00000010) refers (Weak) to _printf_oct_int_ll.o(.text) for _printf_ll_oct
    _printf_llx.o(.ARM.Collect$$_printf_percent$$00000011) refers (Special) to _printf_ll.o(.ARM.Collect$$_printf_percent$$00000007) for _printf_ll
    _printf_llx.o(.ARM.Collect$$_printf_percent$$00000011) refers (Weak) to _printf_hex_int_ll_ptr.o(.text) for _printf_ll_hex
    dretinf.o(x$fpl$dretinf) refers (Special) to usenofp.o(x$fpl$usenofp) for __I$use$fp
    fnaninf.o(x$fpl$fnaninf) refers (Special) to usenofp.o(x$fpl$usenofp) for __I$use$fp
    printf2.o(x$fpl$printf2) refers to _printf_fp_hex.o(.text) for _printf_fp_hex_real
    printf2b.o(x$fpl$printf2) refers to _printf_fp_hex.o(.text) for _printf_fp_hex_real
    __rtentry2.o(.ARM.Collect$$rtentry$$00000008) refers to boardinit2.o(.text) for _platform_post_stackheap_init
    __rtentry2.o(.ARM.Collect$$rtentry$$0000000A) refers to libinit.o(.ARM.Collect$$libinit$$00000000) for __rt_lib_init
    __rtentry2.o(.ARM.Collect$$rtentry$$0000000B) refers to boardinit3.o(.text) for _platform_post_lib_init
    __rtentry2.o(.ARM.Collect$$rtentry$$0000000D) refers to components.o(i.$Sub$$main) for main
    __rtentry2.o(.ARM.Collect$$rtentry$$0000000D) refers to exit.o(.text) for exit
    __rtentry2.o(.ARM.exidx) refers to __rtentry2.o(.ARM.Collect$$rtentry$$00000001) for .ARM.Collect$$rtentry$$00000001
    __rtentry2.o(.ARM.exidx) refers to __rtentry2.o(.ARM.Collect$$rtentry$$00000008) for .ARM.Collect$$rtentry$$00000008
    __rtentry2.o(.ARM.exidx) refers to __rtentry2.o(.ARM.Collect$$rtentry$$0000000A) for .ARM.Collect$$rtentry$$0000000A
    __rtentry2.o(.ARM.exidx) refers to __rtentry2.o(.ARM.Collect$$rtentry$$0000000B) for .ARM.Collect$$rtentry$$0000000B
    __rtentry2.o(.ARM.exidx) refers to __rtentry2.o(.ARM.Collect$$rtentry$$0000000D) for .ARM.Collect$$rtentry$$0000000D
    __rtentry4.o(.ARM.Collect$$rtentry$$00000004) refers to sys_stackheap_outer.o(.text) for __user_setup_stackheap
    __rtentry4.o(.ARM.exidx) refers to __rtentry4.o(.ARM.Collect$$rtentry$$00000004) for .ARM.Collect$$rtentry$$00000004
    rt_locale.o(.text) refers to rt_locale.o(.bss) for __rt_locale_data
    rt_locale_intlibspace.o(.text) refers to libspace.o(.bss) for __libspace_start
    _printf_intcommon.o(.text) refers (Weak) to _printf_pad.o(.text) for _printf_pre_padding
    _printf_intcommon.o(.text) refers (Weak) to _printf_pad.o(.text) for _printf_pre_padding
    _printf_intcommon.o(.text) refers (Weak) to _printf_pad.o(.text) for _printf_post_padding
    _printf_fp_hex.o(.text) refers (Special) to usenofp.o(x$fpl$usenofp) for __I$use$fp
    _printf_fp_hex.o(.text) refers to fpclassify.o(i.__ARM_fpclassify) for __ARM_fpclassify
    _printf_fp_hex.o(.text) refers to _printf_fp_infnan.o(.text) for _printf_fp_infnan
    _printf_fp_hex.o(.text) refers (Weak) to _printf_pad.o(.text) for _printf_pre_padding
    _printf_fp_hex.o(.text) refers (Weak) to _printf_pad.o(.text) for _printf_pre_padding
    _printf_fp_hex.o(.text) refers (Weak) to _printf_pad.o(.text) for _printf_post_padding
    _printf_fp_hex.o(.text) refers to _printf_fp_hex.o(.constdata) for .constdata
    _printf_fp_hex.o(.constdata) refers (Special) to usenofp.o(x$fpl$usenofp) for __I$use$fp
    _printf_fp_infnan.o(.text) refers (Weak) to _printf_pad.o(.text) for _printf_pre_padding
    _printf_fp_infnan.o(.text) refers (Weak) to _printf_pad.o(.text) for _printf_post_padding
    _printf_wchar.o(.text) refers (Weak) to _printf_wctomb.o(.text) for _printf_wctomb
    bigflt0.o(.text) refers (Special) to usenofp.o(x$fpl$usenofp) for __I$use$fp
    bigflt0.o(.text) refers to btod.o(CL$$btod_emul) for _btod_emul
    bigflt0.o(.text) refers to btod.o(CL$$btod_ediv) for _btod_ediv
    bigflt0.o(.text) refers to bigflt0.o(.constdata) for .constdata
    bigflt0.o(.constdata) refers (Special) to usenofp.o(x$fpl$usenofp) for __I$use$fp
    btod.o(CL$$btod_d2e) refers (Special) to usenofp.o(x$fpl$usenofp) for __I$use$fp
    btod.o(CL$$btod_d2e) refers to btod.o(CL$$btod_d2e_norm_op1) for _d2e_norm_op1
    btod.o(CL$$btod_d2e_norm_op1) refers (Special) to usenofp.o(x$fpl$usenofp) for __I$use$fp
    btod.o(CL$$btod_d2e_norm_op1) refers to btod.o(CL$$btod_d2e_denorm_low) for _d2e_denorm_low
    btod.o(CL$$btod_d2e_denorm_low) refers (Special) to usenofp.o(x$fpl$usenofp) for __I$use$fp
    btod.o(CL$$btod_emul) refers (Special) to usenofp.o(x$fpl$usenofp) for __I$use$fp
    btod.o(CL$$btod_emul) refers to btod.o(CL$$btod_mult_common) for __btod_mult_common
    btod.o(CL$$btod_emul) refers to btod.o(CL$$btod_e2e) for _e2e
    btod.o(CL$$btod_ediv) refers (Special) to usenofp.o(x$fpl$usenofp) for __I$use$fp
    btod.o(CL$$btod_ediv) refers to btod.o(CL$$btod_div_common) for __btod_div_common
    btod.o(CL$$btod_ediv) refers to btod.o(CL$$btod_e2e) for _e2e
    btod.o(CL$$btod_emuld) refers (Special) to usenofp.o(x$fpl$usenofp) for __I$use$fp
    btod.o(CL$$btod_emuld) refers to btod.o(CL$$btod_mult_common) for __btod_mult_common
    btod.o(CL$$btod_emuld) refers to btod.o(CL$$btod_e2d) for _e2d
    btod.o(CL$$btod_edivd) refers (Special) to usenofp.o(x$fpl$usenofp) for __I$use$fp
    btod.o(CL$$btod_edivd) refers to btod.o(CL$$btod_div_common) for __btod_div_common
    btod.o(CL$$btod_edivd) refers to btod.o(CL$$btod_e2d) for _e2d
    btod.o(CL$$btod_e2e) refers (Special) to usenofp.o(x$fpl$usenofp) for __I$use$fp
    btod.o(CL$$btod_e2d) refers (Special) to usenofp.o(x$fpl$usenofp) for __I$use$fp
    btod.o(CL$$btod_e2d) refers to btod.o(CL$$btod_e2e) for _e2e
    btod.o(CL$$btod_mult_common) refers (Special) to usenofp.o(x$fpl$usenofp) for __I$use$fp
    btod.o(CL$$btod_div_common) refers (Special) to usenofp.o(x$fpl$usenofp) for __I$use$fp
    _wcrtomb.o(.text) refers to rt_ctype_table.o(.text) for __rt_ctype_table
    lc_numeric_c.o(locale$$data) refers (Special) to libinit2.o(.ARM.Collect$$libinit$$00000016) for __rt_lib_init_lc_numeric_2
    lc_numeric_c.o(locale$$code) refers (Special) to libinit2.o(.ARM.Collect$$libinit$$00000016) for __rt_lib_init_lc_numeric_2
    lc_numeric_c.o(locale$$code) refers to strcmpv7m.o(.text) for strcmp
    lc_numeric_c.o(locale$$code) refers to lc_numeric_c.o(locale$$data) for __lcnum_c_name
    istatus.o(x$fpl$ieeestatus) refers (Special) to usenofp.o(x$fpl$usenofp) for __I$use$fp
    fpclassify.o(i.__ARM_fpclassify) refers (Special) to usenofp.o(x$fpl$usenofp) for __I$use$fp
    libspace.o(.text) refers to libspace.o(.bss) for __libspace_start
    sys_stackheap_outer.o(.text) refers to libspace.o(.text) for __user_perproc_libspace
    sys_stackheap_outer.o(.text) refers to startup_stm32f40_41xxx.o(.text) for __user_initial_stackheap
    rt_ctype_table.o(.text) refers to rt_locale_intlibspace.o(.text) for __rt_locale
    rt_ctype_table.o(.text) refers to lc_ctype_c.o(locale$$code) for _get_lc_ctype
    exit.o(.text) refers to rtexit.o(.ARM.Collect$$rtexit$$00000000) for __rt_exit
    libinit.o(.ARM.Collect$$libinit$$00000000) refers (Special) to libinit2.o(.ARM.Collect$$libinit$$0000002E) for __rt_lib_init_alloca_1
    libinit.o(.ARM.Collect$$libinit$$00000000) refers (Special) to libinit2.o(.ARM.Collect$$libinit$$0000002C) for __rt_lib_init_argv_1
    libinit.o(.ARM.Collect$$libinit$$00000000) refers (Special) to libinit2.o(.ARM.Collect$$libinit$$0000001B) for __rt_lib_init_atexit_1
    libinit.o(.ARM.Collect$$libinit$$00000000) refers (Special) to libinit2.o(.ARM.Collect$$libinit$$00000021) for __rt_lib_init_clock_1
    libinit.o(.ARM.Collect$$libinit$$00000000) refers (Special) to libinit2.o(.ARM.Collect$$libinit$$00000032) for __rt_lib_init_cpp_1
    libinit.o(.ARM.Collect$$libinit$$00000000) refers (Special) to libinit2.o(.ARM.Collect$$libinit$$00000030) for __rt_lib_init_exceptions_1
    libinit.o(.ARM.Collect$$libinit$$00000000) refers (Special) to libinit2.o(.ARM.Collect$$libinit$$00000001) for __rt_lib_init_fp_1
    libinit.o(.ARM.Collect$$libinit$$00000000) refers (Special) to libinit2.o(.ARM.Collect$$libinit$$0000001F) for __rt_lib_init_fp_trap_1
    libinit.o(.ARM.Collect$$libinit$$00000000) refers (Special) to libinit2.o(.ARM.Collect$$libinit$$00000023) for __rt_lib_init_getenv_1
    libinit.o(.ARM.Collect$$libinit$$00000000) refers (Special) to libinit2.o(.ARM.Collect$$libinit$$0000000A) for __rt_lib_init_heap_1
    libinit.o(.ARM.Collect$$libinit$$00000000) refers (Special) to libinit2.o(.ARM.Collect$$libinit$$00000011) for __rt_lib_init_lc_collate_1
    libinit.o(.ARM.Collect$$libinit$$00000000) refers (Special) to libinit2.o(.ARM.Collect$$libinit$$00000013) for __rt_lib_init_lc_ctype_1
    libinit.o(.ARM.Collect$$libinit$$00000000) refers (Special) to libinit2.o(.ARM.Collect$$libinit$$00000015) for __rt_lib_init_lc_monetary_1
    libinit.o(.ARM.Collect$$libinit$$00000000) refers (Special) to libinit2.o(.ARM.Collect$$libinit$$00000017) for __rt_lib_init_lc_numeric_1
    libinit.o(.ARM.Collect$$libinit$$00000000) refers (Special) to libinit2.o(.ARM.Collect$$libinit$$00000019) for __rt_lib_init_lc_time_1
    libinit.o(.ARM.Collect$$libinit$$00000000) refers (Special) to libinit2.o(.ARM.Collect$$libinit$$00000004) for __rt_lib_init_preinit_1
    libinit.o(.ARM.Collect$$libinit$$00000000) refers (Special) to libinit2.o(.ARM.Collect$$libinit$$0000000E) for __rt_lib_init_rand_1
    libinit.o(.ARM.Collect$$libinit$$00000000) refers (Special) to libinit2.o(.ARM.Collect$$libinit$$00000033) for __rt_lib_init_return
    libinit.o(.ARM.Collect$$libinit$$00000000) refers (Special) to libinit2.o(.ARM.Collect$$libinit$$0000001D) for __rt_lib_init_signal_1
    libinit.o(.ARM.Collect$$libinit$$00000000) refers (Special) to libinit2.o(.ARM.Collect$$libinit$$00000025) for __rt_lib_init_stdio_1
    libinit.o(.ARM.Collect$$libinit$$00000000) refers (Special) to libinit2.o(.ARM.Collect$$libinit$$0000000C) for __rt_lib_init_user_alloc_1
    libinit2.o(.ARM.Collect$$libinit$$00000001) refers to fpinit.o(x$fpl$fpinit) for _fp_init
    libinit2.o(.ARM.Collect$$libinit$$0000000F) refers (Weak) to rt_locale_intlibspace.o(.text) for __rt_locale
    libinit2.o(.ARM.Collect$$libinit$$00000010) refers to libinit2.o(.ARM.Collect$$libinit$$0000000F) for .ARM.Collect$$libinit$$0000000F
    libinit2.o(.ARM.Collect$$libinit$$00000012) refers to libinit2.o(.ARM.Collect$$libinit$$0000000F) for .ARM.Collect$$libinit$$0000000F
    libinit2.o(.ARM.Collect$$libinit$$00000012) refers (Weak) to lc_ctype_c.o(locale$$code) for _get_lc_ctype
    libinit2.o(.ARM.Collect$$libinit$$00000014) refers to libinit2.o(.ARM.Collect$$libinit$$0000000F) for .ARM.Collect$$libinit$$0000000F
    libinit2.o(.ARM.Collect$$libinit$$00000016) refers to libinit2.o(.ARM.Collect$$libinit$$0000000F) for .ARM.Collect$$libinit$$0000000F
    libinit2.o(.ARM.Collect$$libinit$$00000016) refers (Weak) to lc_numeric_c.o(locale$$code) for _get_lc_numeric
    libinit2.o(.ARM.Collect$$libinit$$00000018) refers to libinit2.o(.ARM.Collect$$libinit$$0000000F) for .ARM.Collect$$libinit$$0000000F
    libinit2.o(.ARM.Collect$$libinit$$00000026) refers to argv_veneer.o(.emb_text) for __ARM_argv_veneer
    libinit2.o(.ARM.Collect$$libinit$$00000027) refers to argv_veneer.o(.emb_text) for __ARM_argv_veneer
    rtexit.o(.ARM.Collect$$rtexit$$00000000) refers (Special) to rtexit2.o(.ARM.Collect$$rtexit$$00000004) for __rt_exit_exit
    rtexit.o(.ARM.Collect$$rtexit$$00000000) refers (Special) to rtexit2.o(.ARM.Collect$$rtexit$$00000003) for __rt_exit_ls
    rtexit.o(.ARM.Collect$$rtexit$$00000000) refers (Special) to rtexit2.o(.ARM.Collect$$rtexit$$00000002) for __rt_exit_prels_1
    rtexit.o(.ARM.exidx) refers (Special) to rtexit2.o(.ARM.Collect$$rtexit$$00000004) for __rt_exit_exit
    rtexit.o(.ARM.exidx) refers (Special) to rtexit2.o(.ARM.Collect$$rtexit$$00000003) for __rt_exit_ls
    rtexit.o(.ARM.exidx) refers (Special) to rtexit2.o(.ARM.Collect$$rtexit$$00000002) for __rt_exit_prels_1
    rtexit.o(.ARM.exidx) refers to rtexit.o(.ARM.Collect$$rtexit$$00000000) for .ARM.Collect$$rtexit$$00000000
    lc_ctype_c.o(locale$$data) refers (Special) to libinit2.o(.ARM.Collect$$libinit$$00000012) for __rt_lib_init_lc_ctype_2
    lc_ctype_c.o(locale$$code) refers (Special) to libinit2.o(.ARM.Collect$$libinit$$00000012) for __rt_lib_init_lc_ctype_2
    lc_ctype_c.o(locale$$code) refers to strcmpv7m.o(.text) for strcmp
    lc_ctype_c.o(locale$$code) refers to lc_ctype_c.o(locale$$data) for __lcctype_c_name
    argv_veneer.o(.emb_text) refers to no_argv.o(.text) for __ARM_get_argv
    rtexit2.o(.ARM.Collect$$rtexit$$00000003) refers to libshutdown.o(.ARM.Collect$$libshutdown$$00000000) for __rt_lib_shutdown
    rtexit2.o(.ARM.Collect$$rtexit$$00000004) refers to sys_exit.o(.text) for _sys_exit
    rtexit2.o(.ARM.exidx) refers to rtexit2.o(.ARM.Collect$$rtexit$$00000001) for .ARM.Collect$$rtexit$$00000001
    rtexit2.o(.ARM.exidx) refers to rtexit2.o(.ARM.Collect$$rtexit$$00000003) for .ARM.Collect$$rtexit$$00000003
    rtexit2.o(.ARM.exidx) refers to rtexit2.o(.ARM.Collect$$rtexit$$00000004) for .ARM.Collect$$rtexit$$00000004
    _get_argv_nomalloc.o(.text) refers (Special) to hrguard.o(.text) for __heap_region$guard
    _get_argv_nomalloc.o(.text) refers to defsig_rtmem_outer.o(.text) for __rt_SIGRTMEM
    _get_argv_nomalloc.o(.text) refers to sys_command.o(.text) for _sys_command_string
    sys_command.o(.text) refers (Special) to use_no_semi.o(.text) for __I$use$semihosting
    sys_command.o(.text) refers (Special) to indicate_semi.o(.text) for __semihosting_library_function
    sys_exit.o(.text) refers (Special) to use_no_semi.o(.text) for __I$use$semihosting
    sys_exit.o(.text) refers (Special) to indicate_semi.o(.text) for __semihosting_library_function
    defsig_rtmem_outer.o(.text) refers to defsig_rtmem_inner.o(.text) for __rt_SIGRTMEM_inner
    defsig_rtmem_outer.o(.text) refers to defsig_exit.o(.text) for __sig_exit
    defsig_rtmem_formal.o(.text) refers to rt_raise.o(.text) for __rt_raise
    libshutdown.o(.ARM.Collect$$libshutdown$$00000000) refers (Special) to libshutdown2.o(.ARM.Collect$$libshutdown$$00000002) for __rt_lib_shutdown_cpp_1
    libshutdown.o(.ARM.Collect$$libshutdown$$00000000) refers (Special) to libshutdown2.o(.ARM.Collect$$libshutdown$$00000007) for __rt_lib_shutdown_fp_trap_1
    libshutdown.o(.ARM.Collect$$libshutdown$$00000000) refers (Special) to libshutdown2.o(.ARM.Collect$$libshutdown$$0000000F) for __rt_lib_shutdown_heap_1
    libshutdown.o(.ARM.Collect$$libshutdown$$00000000) refers (Special) to libshutdown2.o(.ARM.Collect$$libshutdown$$00000010) for __rt_lib_shutdown_return
    libshutdown.o(.ARM.Collect$$libshutdown$$00000000) refers (Special) to libshutdown2.o(.ARM.Collect$$libshutdown$$0000000A) for __rt_lib_shutdown_signal_1
    libshutdown.o(.ARM.Collect$$libshutdown$$00000000) refers (Special) to libshutdown2.o(.ARM.Collect$$libshutdown$$00000004) for __rt_lib_shutdown_stdio_1
    libshutdown.o(.ARM.Collect$$libshutdown$$00000000) refers (Special) to libshutdown2.o(.ARM.Collect$$libshutdown$$0000000C) for __rt_lib_shutdown_user_alloc_1
    rt_raise.o(.text) refers to __raise.o(.text) for __raise
    rt_raise.o(.text) refers to sys_exit.o(.text) for _sys_exit
    defsig_exit.o(.text) refers to sys_exit.o(.text) for _sys_exit
    defsig_rtmem_inner.o(.text) refers to defsig_general.o(.text) for __default_signal_display
    __raise.o(.text) refers to defsig.o(CL$$defsig) for __default_signal_handler
    defsig_general.o(.text) refers to sys_wrch.o(.text) for _ttywrch
    sys_wrch.o(.text) refers (Special) to use_no_semi.o(.text) for __I$use$semihosting
    sys_wrch.o(.text) refers (Special) to indicate_semi.o(.text) for __semihosting_library_function
    defsig.o(CL$$defsig) refers to defsig_rtmem_inner.o(.text) for __rt_SIGRTMEM_inner
    defsig_abrt_inner.o(.text) refers to defsig_general.o(.text) for __default_signal_display
    defsig_fpe_inner.o(.text) refers to defsig_general.o(.text) for __default_signal_display
    defsig_rtred_inner.o(.text) refers to defsig_general.o(.text) for __default_signal_display
    defsig_stak_inner.o(.text) refers to defsig_general.o(.text) for __default_signal_display
    defsig_pvfn_inner.o(.text) refers to defsig_general.o(.text) for __default_signal_display
    defsig_cppl_inner.o(.text) refers to defsig_general.o(.text) for __default_signal_display
    defsig_segv_inner.o(.text) refers to defsig_general.o(.text) for __default_signal_display
    defsig_other.o(.text) refers to defsig_general.o(.text) for __default_signal_display


==============================================================================

Removing Unused input sections from the image.

    Removing main.o(.rev16_text), (4 bytes).
    Removing main.o(.revsh_text), (4 bytes).
    Removing main.o(.rrx_text), (6 bytes).
    Removing app.o(.rev16_text), (4 bytes).
    Removing app.o(.revsh_text), (4 bytes).
    Removing app.o(.rrx_text), (6 bytes).
    Removing app.o(i.CD100M_CLEAR), (100 bytes).
    Removing app.o(i.MQTT_INIT), (332 bytes).
    Removing app.o(i.MQTT_PUB_DATA), (152 bytes).
    Removing app.o(.bss), (1024 bytes).
    Removing app.o(.bss), (1024 bytes).
    Removing app.o(.bss), (1024 bytes).
    Removing app.o(.bss), (256 bytes).
    Removing app.o(.bss), (128 bytes).
    Removing drv_bc28.o(.rev16_text), (4 bytes).
    Removing drv_bc28.o(.revsh_text), (4 bytes).
    Removing drv_bc28.o(.rrx_text), (6 bytes).
    Removing drv_bc28.o(i.BC28_SEND_DATA), (44 bytes).
    Removing drv_bc28.o(i.bc28_callback), (40 bytes).
    Removing drv_bc28.o(.bss), (128 bytes).
    Removing drv_bc28.o(.data), (4 bytes).
    Removing user_defined.o(.rev16_text), (4 bytes).
    Removing user_defined.o(.revsh_text), (4 bytes).
    Removing user_defined.o(.rrx_text), (6 bytes).
    Removing user_defined.o(i.JSON_Upper), (128 bytes).
    Removing user_defined.o(.bss), (1024 bytes).
    Removing drv_hx711.o(.rev16_text), (4 bytes).
    Removing drv_hx711.o(.revsh_text), (4 bytes).
    Removing drv_hx711.o(.rrx_text), (6 bytes).
    Removing drv_hx711.o(i.get_waterweight), (16 bytes).
    Removing drv_hx711.o(.data), (4 bytes).
    Removing led.o(.rev16_text), (4 bytes).
    Removing led.o(.revsh_text), (4 bytes).
    Removing led.o(.rrx_text), (6 bytes).
    Removing led.o(i.LED_Init), (52 bytes).
    Removing cd100m.o(.rev16_text), (4 bytes).
    Removing cd100m.o(.revsh_text), (4 bytes).
    Removing cd100m.o(.rrx_text), (6 bytes).
    Removing cd100m.o(i.CD100M_clr_cup_status), (20 bytes).
    Removing cd100m.o(i.CD100M_dbg_auto_dis), (28 bytes).
    Removing cd100m.o(i.CD100M_dbg_auto_en), (28 bytes).
    Removing cd100m.o(i.CD100M_get_cup_status), (40 bytes).
    Removing cd100m.o(i.CD100M_get_debuge_info), (60 bytes).
    Removing cd100m.o(i.CD100M_get_detect_paras), (20 bytes).
    Removing cd100m.o(i.CD100M_get_id), (32 bytes).
    Removing cd100m.o(i.CD100M_get_xtalk), (20 bytes).
    Removing cd100m.o(i.CD100M_hot_start), (16 bytes).
    Removing cd100m.o(i.CD100M_hot_stop), (20 bytes).
    Removing cd100m.o(i.CD100M_init), (320 bytes).
    Removing cd100m.o(i.CD100M_set_baud), (144 bytes).
    Removing cd100m.o(i.CD100M_set_full_cup_cnt), (24 bytes).
    Removing cd100m.o(i.CD100M_set_get_cup_cnt), (24 bytes).
    Removing cd100m.o(i.CD100M_set_no_cup_cnt), (20 bytes).
    Removing cd100m.o(i.CD100M_set_platform_dis), (28 bytes).
    Removing cd100m.o(i.CD100M_set_pre_full_cnt), (24 bytes).
    Removing cd100m.o(i.CD100M_set_remain_thr), (24 bytes).
    Removing cd100m.o(i.CD100M_set_tof1_obj1_edge), (28 bytes).
    Removing cd100m.o(i.CD100M_set_tof2_obj1_edge), (28 bytes).
    Removing cd100m.o(i.CD100M_set_tof2_obj1_water), (28 bytes).
    Removing cd100m.o(i.CD100M_set_water_status), (24 bytes).
    Removing cd100m.o(i.CD100M_set_work_max_dis), (28 bytes).
    Removing cd100m.o(i.CD100M_sta_auto_dis), (24 bytes).
    Removing cd100m.o(i.CD100M_sta_auto_en), (28 bytes).
    Removing cd100m.o(i.CD100M_start), (20 bytes).
    Removing cd100m.o(i.CD100M_stop), (20 bytes).
    Removing cd100m.o(i.write_cmd_wait), (68 bytes).
    Removing hx711_1.o(.rev16_text), (4 bytes).
    Removing hx711_1.o(.revsh_text), (4 bytes).
    Removing hx711_1.o(.rrx_text), (6 bytes).
    Removing hx711_1.o(i.Get_Maopi), (16 bytes).
    Removing hx711_1.o(i.Get_Weight), (52 bytes).
    Removing hx711_1.o(i.HX711_Read), (104 bytes).
    Removing hx711_1.o(i.Init_Hx711), (76 bytes).
    Removing hx711_1.o(i.digitalRead), (6 bytes).
    Removing hx711_1.o(i.digitalWrite), (22 bytes).
    Removing hx711_1.o(.data), (12 bytes).
    Removing bc28.o(.rev16_text), (4 bytes).
    Removing bc28.o(.revsh_text), (4 bytes).
    Removing bc28.o(.rrx_text), (6 bytes).
    Removing bc28.o(i.BC28_Init), (604 bytes).
    Removing bc28.o(i.BC28_Reply), (40 bytes).
    Removing bc28.o(i.BC28_Send_Check), (84 bytes).
    Removing bc28.o(i.MQTT_Init), (788 bytes).
    Removing bc28.o(i.MQTT_PUB), (184 bytes).
    Removing lw_oopc.o(i.lw_oopc_report), (2 bytes).
    Removing usart.o(.rev16_text), (4 bytes).
    Removing usart.o(.revsh_text), (4 bytes).
    Removing usart.o(.rrx_text), (6 bytes).
    Removing usart.o(i.USART3_Send_Data), (52 bytes).
    Removing usart.o(i.uart3_init), (156 bytes).
    Removing sys.o(.rev16_text), (4 bytes).
    Removing sys.o(.revsh_text), (4 bytes).
    Removing sys.o(.rrx_text), (6 bytes).
    Removing sys.o(.emb_text), (16 bytes).
    Removing delay.o(.rev16_text), (4 bytes).
    Removing delay.o(.revsh_text), (4 bytes).
    Removing delay.o(.rrx_text), (6 bytes).
    Removing delay.o(i.delay_us), (40 bytes).
    Removing misc.o(.rev16_text), (4 bytes).
    Removing misc.o(.revsh_text), (4 bytes).
    Removing misc.o(.rrx_text), (6 bytes).
    Removing misc.o(i.NVIC_SetVectorTable), (20 bytes).
    Removing misc.o(i.NVIC_SystemLPConfig), (24 bytes).
    Removing misc.o(i.SysTick_CLKSourceConfig), (24 bytes).
    Removing stm32f4xx_dma.o(.rev16_text), (4 bytes).
    Removing stm32f4xx_dma.o(.revsh_text), (4 bytes).
    Removing stm32f4xx_dma.o(.rrx_text), (6 bytes).
    Removing stm32f4xx_dma.o(i.DMA_ClearFlag), (44 bytes).
    Removing stm32f4xx_dma.o(i.DMA_ClearITPendingBit), (44 bytes).
    Removing stm32f4xx_dma.o(i.DMA_Cmd), (20 bytes).
    Removing stm32f4xx_dma.o(i.DMA_DeInit), (292 bytes).
    Removing stm32f4xx_dma.o(i.DMA_DoubleBufferModeCmd), (20 bytes).
    Removing stm32f4xx_dma.o(i.DMA_DoubleBufferModeConfig), (22 bytes).
    Removing stm32f4xx_dma.o(i.DMA_FlowControllerConfig), (20 bytes).
    Removing stm32f4xx_dma.o(i.DMA_GetCmdStatus), (14 bytes).
    Removing stm32f4xx_dma.o(i.DMA_GetCurrDataCounter), (6 bytes).
    Removing stm32f4xx_dma.o(i.DMA_GetCurrentMemoryTarget), (14 bytes).
    Removing stm32f4xx_dma.o(i.DMA_GetFIFOStatus), (8 bytes).
    Removing stm32f4xx_dma.o(i.DMA_GetFlagStatus), (52 bytes).
    Removing stm32f4xx_dma.o(i.DMA_GetITStatus), (84 bytes).
    Removing stm32f4xx_dma.o(i.DMA_ITConfig), (44 bytes).
    Removing stm32f4xx_dma.o(i.DMA_Init), (84 bytes).
    Removing stm32f4xx_dma.o(i.DMA_MemoryTargetConfig), (10 bytes).
    Removing stm32f4xx_dma.o(i.DMA_PeriphIncOffsetSizeConfig), (20 bytes).
    Removing stm32f4xx_dma.o(i.DMA_SetCurrDataCounter), (4 bytes).
    Removing stm32f4xx_dma.o(i.DMA_StructInit), (34 bytes).
    Removing stm32f4xx_exti.o(.rev16_text), (4 bytes).
    Removing stm32f4xx_exti.o(.revsh_text), (4 bytes).
    Removing stm32f4xx_exti.o(.rrx_text), (6 bytes).
    Removing stm32f4xx_exti.o(i.EXTI_ClearFlag), (12 bytes).
    Removing stm32f4xx_exti.o(i.EXTI_ClearITPendingBit), (12 bytes).
    Removing stm32f4xx_exti.o(i.EXTI_DeInit), (36 bytes).
    Removing stm32f4xx_exti.o(i.EXTI_GenerateSWInterrupt), (16 bytes).
    Removing stm32f4xx_exti.o(i.EXTI_GetFlagStatus), (20 bytes).
    Removing stm32f4xx_exti.o(i.EXTI_GetITStatus), (20 bytes).
    Removing stm32f4xx_exti.o(i.EXTI_Init), (112 bytes).
    Removing stm32f4xx_exti.o(i.EXTI_StructInit), (14 bytes).
    Removing stm32f4xx_gpio.o(.rev16_text), (4 bytes).
    Removing stm32f4xx_gpio.o(.revsh_text), (4 bytes).
    Removing stm32f4xx_gpio.o(.rrx_text), (6 bytes).
    Removing stm32f4xx_gpio.o(i.GPIO_DeInit), (260 bytes).
    Removing stm32f4xx_gpio.o(i.GPIO_PinLockConfig), (24 bytes).
    Removing stm32f4xx_gpio.o(i.GPIO_ReadInputData), (6 bytes).
    Removing stm32f4xx_gpio.o(i.GPIO_ReadInputDataBit), (14 bytes).
    Removing stm32f4xx_gpio.o(i.GPIO_ReadOutputData), (6 bytes).
    Removing stm32f4xx_gpio.o(i.GPIO_ReadOutputDataBit), (14 bytes).
    Removing stm32f4xx_gpio.o(i.GPIO_ResetBits), (4 bytes).
    Removing stm32f4xx_gpio.o(i.GPIO_SetBits), (4 bytes).
    Removing stm32f4xx_gpio.o(i.GPIO_StructInit), (18 bytes).
    Removing stm32f4xx_gpio.o(i.GPIO_ToggleBits), (8 bytes).
    Removing stm32f4xx_gpio.o(i.GPIO_Write), (4 bytes).
    Removing stm32f4xx_gpio.o(i.GPIO_WriteBit), (10 bytes).
    Removing stm32f4xx_rcc.o(.rev16_text), (4 bytes).
    Removing stm32f4xx_rcc.o(.revsh_text), (4 bytes).
    Removing stm32f4xx_rcc.o(.rrx_text), (6 bytes).
    Removing stm32f4xx_rcc.o(i.RCC_AHB1PeriphClockLPModeCmd), (24 bytes).
    Removing stm32f4xx_rcc.o(i.RCC_AHB1PeriphResetCmd), (24 bytes).
    Removing stm32f4xx_rcc.o(i.RCC_AHB2PeriphClockCmd), (24 bytes).
    Removing stm32f4xx_rcc.o(i.RCC_AHB2PeriphClockLPModeCmd), (24 bytes).
    Removing stm32f4xx_rcc.o(i.RCC_AHB2PeriphResetCmd), (24 bytes).
    Removing stm32f4xx_rcc.o(i.RCC_AHB3PeriphClockCmd), (24 bytes).
    Removing stm32f4xx_rcc.o(i.RCC_AHB3PeriphClockLPModeCmd), (24 bytes).
    Removing stm32f4xx_rcc.o(i.RCC_AHB3PeriphResetCmd), (24 bytes).
    Removing stm32f4xx_rcc.o(i.RCC_APB1PeriphClockLPModeCmd), (24 bytes).
    Removing stm32f4xx_rcc.o(i.RCC_APB1PeriphResetCmd), (24 bytes).
    Removing stm32f4xx_rcc.o(i.RCC_APB2PeriphClockLPModeCmd), (24 bytes).
    Removing stm32f4xx_rcc.o(i.RCC_APB2PeriphResetCmd), (24 bytes).
    Removing stm32f4xx_rcc.o(i.RCC_AdjustHSICalibrationValue), (20 bytes).
    Removing stm32f4xx_rcc.o(i.RCC_BackupResetCmd), (12 bytes).
    Removing stm32f4xx_rcc.o(i.RCC_ClearFlag), (16 bytes).
    Removing stm32f4xx_rcc.o(i.RCC_ClearITPendingBit), (12 bytes).
    Removing stm32f4xx_rcc.o(i.RCC_ClockSecuritySystemCmd), (12 bytes).
    Removing stm32f4xx_rcc.o(i.RCC_DeInit), (84 bytes).
    Removing stm32f4xx_rcc.o(i.RCC_GetFlagStatus), (52 bytes).
    Removing stm32f4xx_rcc.o(i.RCC_GetITStatus), (20 bytes).
    Removing stm32f4xx_rcc.o(i.RCC_GetSYSCLKSource), (16 bytes).
    Removing stm32f4xx_rcc.o(i.RCC_HCLKConfig), (20 bytes).
    Removing stm32f4xx_rcc.o(i.RCC_HSEConfig), (16 bytes).
    Removing stm32f4xx_rcc.o(i.RCC_HSICmd), (12 bytes).
    Removing stm32f4xx_rcc.o(i.RCC_I2SCLKConfig), (12 bytes).
    Removing stm32f4xx_rcc.o(i.RCC_ITConfig), (24 bytes).
    Removing stm32f4xx_rcc.o(i.RCC_LSEConfig), (28 bytes).
    Removing stm32f4xx_rcc.o(i.RCC_LSICmd), (12 bytes).
    Removing stm32f4xx_rcc.o(i.RCC_LTDCCLKDivConfig), (20 bytes).
    Removing stm32f4xx_rcc.o(i.RCC_MCO1Config), (20 bytes).
    Removing stm32f4xx_rcc.o(i.RCC_MCO2Config), (20 bytes).
    Removing stm32f4xx_rcc.o(i.RCC_PCLK1Config), (20 bytes).
    Removing stm32f4xx_rcc.o(i.RCC_PCLK2Config), (20 bytes).
    Removing stm32f4xx_rcc.o(i.RCC_PLLCmd), (12 bytes).
    Removing stm32f4xx_rcc.o(i.RCC_PLLConfig), (40 bytes).
    Removing stm32f4xx_rcc.o(i.RCC_PLLI2SCmd), (12 bytes).
    Removing stm32f4xx_rcc.o(i.RCC_PLLI2SConfig), (16 bytes).
    Removing stm32f4xx_rcc.o(i.RCC_PLLSAICmd), (12 bytes).
    Removing stm32f4xx_rcc.o(i.RCC_PLLSAIConfig), (20 bytes).
    Removing stm32f4xx_rcc.o(i.RCC_RTCCLKCmd), (12 bytes).
    Removing stm32f4xx_rcc.o(i.RCC_RTCCLKConfig), (48 bytes).
    Removing stm32f4xx_rcc.o(i.RCC_SAIBlockACLKConfig), (20 bytes).
    Removing stm32f4xx_rcc.o(i.RCC_SAIBlockBCLKConfig), (20 bytes).
    Removing stm32f4xx_rcc.o(i.RCC_SAIPLLI2SClkDivConfig), (20 bytes).
    Removing stm32f4xx_rcc.o(i.RCC_SAIPLLSAIClkDivConfig), (28 bytes).
    Removing stm32f4xx_rcc.o(i.RCC_SYSCLKConfig), (20 bytes).
    Removing stm32f4xx_rcc.o(i.RCC_TIMCLKPresConfig), (12 bytes).
    Removing stm32f4xx_rcc.o(i.RCC_WaitForHSEStartUp), (44 bytes).
    Removing stm32f4xx_syscfg.o(.rev16_text), (4 bytes).
    Removing stm32f4xx_syscfg.o(.revsh_text), (4 bytes).
    Removing stm32f4xx_syscfg.o(.rrx_text), (6 bytes).
    Removing stm32f4xx_syscfg.o(i.SYSCFG_CompensationCellCmd), (12 bytes).
    Removing stm32f4xx_syscfg.o(i.SYSCFG_DeInit), (24 bytes).
    Removing stm32f4xx_syscfg.o(i.SYSCFG_ETH_MediaInterfaceConfig), (12 bytes).
    Removing stm32f4xx_syscfg.o(i.SYSCFG_EXTILineConfig), (48 bytes).
    Removing stm32f4xx_syscfg.o(i.SYSCFG_GetCompensationCellStatus), (20 bytes).
    Removing stm32f4xx_syscfg.o(i.SYSCFG_MemoryRemapConfig), (12 bytes).
    Removing stm32f4xx_syscfg.o(i.SYSCFG_MemorySwappingBank), (12 bytes).
    Removing stm32f4xx_tim.o(.rev16_text), (4 bytes).
    Removing stm32f4xx_tim.o(.revsh_text), (4 bytes).
    Removing stm32f4xx_tim.o(.rrx_text), (6 bytes).
    Removing stm32f4xx_tim.o(i.TI1_Config), (46 bytes).
    Removing stm32f4xx_tim.o(i.TI2_Config), (54 bytes).
    Removing stm32f4xx_tim.o(i.TIM_ARRPreloadConfig), (20 bytes).
    Removing stm32f4xx_tim.o(i.TIM_BDTRConfig), (34 bytes).
    Removing stm32f4xx_tim.o(i.TIM_BDTRStructInit), (18 bytes).
    Removing stm32f4xx_tim.o(i.TIM_CCPreloadControl), (20 bytes).
    Removing stm32f4xx_tim.o(i.TIM_CCxCmd), (22 bytes).
    Removing stm32f4xx_tim.o(i.TIM_CCxNCmd), (22 bytes).
    Removing stm32f4xx_tim.o(i.TIM_ClearFlag), (6 bytes).
    Removing stm32f4xx_tim.o(i.TIM_ClearITPendingBit), (6 bytes).
    Removing stm32f4xx_tim.o(i.TIM_ClearOC1Ref), (12 bytes).
    Removing stm32f4xx_tim.o(i.TIM_ClearOC2Ref), (20 bytes).
    Removing stm32f4xx_tim.o(i.TIM_ClearOC3Ref), (12 bytes).
    Removing stm32f4xx_tim.o(i.TIM_ClearOC4Ref), (20 bytes).
    Removing stm32f4xx_tim.o(i.TIM_Cmd), (20 bytes).
    Removing stm32f4xx_tim.o(i.TIM_CounterModeConfig), (12 bytes).
    Removing stm32f4xx_tim.o(i.TIM_CtrlPWMOutputs), (22 bytes).
    Removing stm32f4xx_tim.o(i.TIM_DMACmd), (16 bytes).
    Removing stm32f4xx_tim.o(i.TIM_DMAConfig), (8 bytes).
    Removing stm32f4xx_tim.o(i.TIM_DeInit), (336 bytes).
    Removing stm32f4xx_tim.o(i.TIM_ETRClockMode1Config), (18 bytes).
    Removing stm32f4xx_tim.o(i.TIM_ETRClockMode2Config), (18 bytes).
    Removing stm32f4xx_tim.o(i.TIM_ETRConfig), (24 bytes).
    Removing stm32f4xx_tim.o(i.TIM_EncoderInterfaceConfig), (50 bytes).
    Removing stm32f4xx_tim.o(i.TIM_ForcedOC1Config), (12 bytes).
    Removing stm32f4xx_tim.o(i.TIM_ForcedOC2Config), (20 bytes).
    Removing stm32f4xx_tim.o(i.TIM_ForcedOC3Config), (12 bytes).
    Removing stm32f4xx_tim.o(i.TIM_ForcedOC4Config), (20 bytes).
    Removing stm32f4xx_tim.o(i.TIM_GenerateEvent), (4 bytes).
    Removing stm32f4xx_tim.o(i.TIM_GetCapture1), (4 bytes).
    Removing stm32f4xx_tim.o(i.TIM_GetCapture2), (4 bytes).
    Removing stm32f4xx_tim.o(i.TIM_GetCapture3), (4 bytes).
    Removing stm32f4xx_tim.o(i.TIM_GetCapture4), (4 bytes).
    Removing stm32f4xx_tim.o(i.TIM_GetCounter), (4 bytes).
    Removing stm32f4xx_tim.o(i.TIM_GetFlagStatus), (14 bytes).
    Removing stm32f4xx_tim.o(i.TIM_GetITStatus), (24 bytes).
    Removing stm32f4xx_tim.o(i.TIM_GetPrescaler), (4 bytes).
    Removing stm32f4xx_tim.o(i.TIM_ICInit), (172 bytes).
    Removing stm32f4xx_tim.o(i.TIM_ICStructInit), (16 bytes).
    Removing stm32f4xx_tim.o(i.TIM_ITConfig), (16 bytes).
    Removing stm32f4xx_tim.o(i.TIM_ITRxExternalClockConfig), (18 bytes).
    Removing stm32f4xx_tim.o(i.TIM_InternalClockConfig), (10 bytes).
    Removing stm32f4xx_tim.o(i.TIM_OC1FastConfig), (12 bytes).
    Removing stm32f4xx_tim.o(i.TIM_OC1Init), (96 bytes).
    Removing stm32f4xx_tim.o(i.TIM_OC1NPolarityConfig), (12 bytes).
    Removing stm32f4xx_tim.o(i.TIM_OC1PolarityConfig), (12 bytes).
    Removing stm32f4xx_tim.o(i.TIM_OC1PreloadConfig), (12 bytes).
    Removing stm32f4xx_tim.o(i.TIM_OC2FastConfig), (20 bytes).
    Removing stm32f4xx_tim.o(i.TIM_OC2Init), (128 bytes).
    Removing stm32f4xx_tim.o(i.TIM_OC2NPolarityConfig), (20 bytes).
    Removing stm32f4xx_tim.o(i.TIM_OC2PolarityConfig), (20 bytes).
    Removing stm32f4xx_tim.o(i.TIM_OC2PreloadConfig), (20 bytes).
    Removing stm32f4xx_tim.o(i.TIM_OC3FastConfig), (12 bytes).
    Removing stm32f4xx_tim.o(i.TIM_OC3Init), (124 bytes).
    Removing stm32f4xx_tim.o(i.TIM_OC3NPolarityConfig), (20 bytes).
    Removing stm32f4xx_tim.o(i.TIM_OC3PolarityConfig), (20 bytes).
    Removing stm32f4xx_tim.o(i.TIM_OC3PreloadConfig), (12 bytes).
    Removing stm32f4xx_tim.o(i.TIM_OC4FastConfig), (20 bytes).
    Removing stm32f4xx_tim.o(i.TIM_OC4Init), (96 bytes).
    Removing stm32f4xx_tim.o(i.TIM_OC4PolarityConfig), (20 bytes).
    Removing stm32f4xx_tim.o(i.TIM_OC4PreloadConfig), (20 bytes).
    Removing stm32f4xx_tim.o(i.TIM_OCStructInit), (20 bytes).
    Removing stm32f4xx_tim.o(i.TIM_PWMIConfig), (108 bytes).
    Removing stm32f4xx_tim.o(i.TIM_PrescalerConfig), (6 bytes).
    Removing stm32f4xx_tim.o(i.TIM_RemapConfig), (6 bytes).
    Removing stm32f4xx_tim.o(i.TIM_SelectCCDMA), (20 bytes).
    Removing stm32f4xx_tim.o(i.TIM_SelectCOM), (20 bytes).
    Removing stm32f4xx_tim.o(i.TIM_SelectHallSensor), (20 bytes).
    Removing stm32f4xx_tim.o(i.TIM_SelectInputTrigger), (12 bytes).
    Removing stm32f4xx_tim.o(i.TIM_SelectMasterSlaveMode), (16 bytes).
    Removing stm32f4xx_tim.o(i.TIM_SelectOCxM), (74 bytes).
    Removing stm32f4xx_tim.o(i.TIM_SelectOnePulseMode), (16 bytes).
    Removing stm32f4xx_tim.o(i.TIM_SelectOutputTrigger), (16 bytes).
    Removing stm32f4xx_tim.o(i.TIM_SelectSlaveMode), (16 bytes).
    Removing stm32f4xx_tim.o(i.TIM_SetAutoreload), (4 bytes).
    Removing stm32f4xx_tim.o(i.TIM_SetClockDivision), (16 bytes).
    Removing stm32f4xx_tim.o(i.TIM_SetCompare1), (4 bytes).
    Removing stm32f4xx_tim.o(i.TIM_SetCompare2), (4 bytes).
    Removing stm32f4xx_tim.o(i.TIM_SetCompare3), (4 bytes).
    Removing stm32f4xx_tim.o(i.TIM_SetCompare4), (4 bytes).
    Removing stm32f4xx_tim.o(i.TIM_SetCounter), (4 bytes).
    Removing stm32f4xx_tim.o(i.TIM_SetIC1Prescaler), (16 bytes).
    Removing stm32f4xx_tim.o(i.TIM_SetIC2Prescaler), (24 bytes).
    Removing stm32f4xx_tim.o(i.TIM_SetIC3Prescaler), (16 bytes).
    Removing stm32f4xx_tim.o(i.TIM_SetIC4Prescaler), (24 bytes).
    Removing stm32f4xx_tim.o(i.TIM_TIxExternalClockConfig), (46 bytes).
    Removing stm32f4xx_tim.o(i.TIM_TimeBaseInit), (124 bytes).
    Removing stm32f4xx_tim.o(i.TIM_TimeBaseStructInit), (18 bytes).
    Removing stm32f4xx_tim.o(i.TIM_UpdateDisableConfig), (20 bytes).
    Removing stm32f4xx_tim.o(i.TIM_UpdateRequestConfig), (20 bytes).
    Removing stm32f4xx_usart.o(.rev16_text), (4 bytes).
    Removing stm32f4xx_usart.o(.revsh_text), (4 bytes).
    Removing stm32f4xx_usart.o(.rrx_text), (6 bytes).
    Removing stm32f4xx_usart.o(i.USART_ClearFlag), (6 bytes).
    Removing stm32f4xx_usart.o(i.USART_ClockInit), (28 bytes).
    Removing stm32f4xx_usart.o(i.USART_ClockStructInit), (12 bytes).
    Removing stm32f4xx_usart.o(i.USART_DMACmd), (16 bytes).
    Removing stm32f4xx_usart.o(i.USART_DeInit), (172 bytes).
    Removing stm32f4xx_usart.o(i.USART_HalfDuplexCmd), (20 bytes).
    Removing stm32f4xx_usart.o(i.USART_IrDACmd), (20 bytes).
    Removing stm32f4xx_usart.o(i.USART_IrDAConfig), (16 bytes).
    Removing stm32f4xx_usart.o(i.USART_LINBreakDetectLengthConfig), (16 bytes).
    Removing stm32f4xx_usart.o(i.USART_LINCmd), (20 bytes).
    Removing stm32f4xx_usart.o(i.USART_OneBitMethodCmd), (20 bytes).
    Removing stm32f4xx_usart.o(i.USART_OverSampling8Cmd), (20 bytes).
    Removing stm32f4xx_usart.o(i.USART_ReceiverWakeUpCmd), (20 bytes).
    Removing stm32f4xx_usart.o(i.USART_SendBreak), (10 bytes).
    Removing stm32f4xx_usart.o(i.USART_SetAddress), (16 bytes).
    Removing stm32f4xx_usart.o(i.USART_SetGuardTime), (16 bytes).
    Removing stm32f4xx_usart.o(i.USART_SetPrescaler), (16 bytes).
    Removing stm32f4xx_usart.o(i.USART_SmartCardCmd), (20 bytes).
    Removing stm32f4xx_usart.o(i.USART_SmartCardNACKCmd), (20 bytes).
    Removing stm32f4xx_usart.o(i.USART_StructInit), (22 bytes).
    Removing stm32f4xx_usart.o(i.USART_WakeUpConfig), (16 bytes).
    Removing system_stm32f4xx.o(.rev16_text), (4 bytes).
    Removing system_stm32f4xx.o(.revsh_text), (4 bytes).
    Removing system_stm32f4xx.o(.rrx_text), (6 bytes).
    Removing system_stm32f4xx.o(i.SystemCoreClockUpdate), (120 bytes).
    Removing system_stm32f4xx.o(.data), (20 bytes).
    Removing device.o(i.rt_device_control), (12 bytes).
    Removing device.o(i.rt_device_create), (34 bytes).
    Removing device.o(i.rt_device_destroy), (18 bytes).
    Removing device.o(i.rt_device_init), (104 bytes).
    Removing device.o(i.rt_device_init_all), (4 bytes).
    Removing device.o(i.rt_device_register), (50 bytes).
    Removing device.o(i.rt_device_set_tx_complete), (6 bytes).
    Removing device.o(i.rt_device_unregister), (10 bytes).
    Removing shell.o(i.finsh_get_device), (12 bytes).
    Removing shell.o(i.finsh_get_echo), (20 bytes).
    Removing shell.o(i.finsh_get_prompt_mode), (20 bytes).
    Removing shell.o(i.finsh_set_echo), (20 bytes).
    Removing shell.o(i.finsh_set_prompt), (52 bytes).
    Removing shell.o(i.finsh_system_var_init), (12 bytes).
    Removing cpuport.o(i.rt_hw_cpu_reset), (16 bytes).
    Removing cpuport.o(i.rt_hw_cpu_shutdown), (24 bytes).
    Removing cpuport.o(i.rt_hw_exception_install), (12 bytes).
    Removing clock.o(i.rt_system_tick_init), (2 bytes).
    Removing clock.o(i.rt_tick_from_millisecond), (50 bytes).
    Removing clock.o(i.rt_tick_increase), (44 bytes).
    Removing clock.o(i.rt_tick_set), (24 bytes).
    Removing idle.o(i.rt_thread_idle_gethandler), (8 bytes).
    Removing ipc.o(i.rt_event_control), (46 bytes).
    Removing ipc.o(i.rt_event_create), (32 bytes).
    Removing ipc.o(i.rt_event_delete), (20 bytes).
    Removing ipc.o(i.rt_event_detach), (20 bytes).
    Removing ipc.o(i.rt_event_init), (30 bytes).
    Removing ipc.o(i.rt_event_recv), (208 bytes).
    Removing ipc.o(i.rt_event_send), (152 bytes).
    Removing ipc.o(i.rt_ipc_list_resume_all), (46 bytes).
    Removing ipc.o(i.rt_mb_control), (58 bytes).
    Removing ipc.o(i.rt_mb_delete), (34 bytes).
    Removing ipc.o(i.rt_mb_detach), (28 bytes).
    Removing ipc.o(i.rt_mb_init), (52 bytes).
    Removing ipc.o(i.rt_mb_recv), (242 bytes).
    Removing ipc.o(i.rt_mb_send), (6 bytes).
    Removing ipc.o(i.rt_mb_send_wait), (240 bytes).
    Removing ipc.o(i.rt_mq_control), (80 bytes).
    Removing ipc.o(i.rt_mq_create), (120 bytes).
    Removing ipc.o(i.rt_mq_delete), (34 bytes).
    Removing ipc.o(i.rt_mq_detach), (28 bytes).
    Removing ipc.o(i.rt_mq_init), (104 bytes).
    Removing ipc.o(i.rt_mq_recv), (262 bytes).
    Removing ipc.o(i.rt_mq_send), (6 bytes).
    Removing ipc.o(i.rt_mq_send_wait), (276 bytes).
    Removing ipc.o(i.rt_mq_urgent), (140 bytes).
    Removing ipc.o(i.rt_mutex_control), (6 bytes).
    Removing ipc.o(i.rt_mutex_create), (42 bytes).
    Removing ipc.o(i.rt_mutex_delete), (20 bytes).
    Removing ipc.o(i.rt_mutex_detach), (20 bytes).
    Removing ipc.o(i.rt_mutex_init), (40 bytes).
    Removing ipc.o(i.rt_mutex_release), (168 bytes).
    Removing ipc.o(i.rt_mutex_take), (186 bytes).
    Removing ipc.o(i.rt_sem_control), (46 bytes).
    Removing ipc.o(i.rt_sem_delete), (20 bytes).
    Removing ipc.o(i.rt_sem_detach), (20 bytes).
    Removing ipc.o(i.rt_sem_trytake), (6 bytes).
    Removing irq.o(i.rt_interrupt_enter), (28 bytes).
    Removing irq.o(i.rt_interrupt_leave), (28 bytes).
    Removing kservice.o(i._rt_errno), (28 bytes).
    Removing kservice.o(i.rt_console_set_device), (48 bytes).
    Removing kservice.o(i.rt_free_align), (8 bytes).
    Removing kservice.o(i.rt_get_errno), (28 bytes).
    Removing kservice.o(i.rt_hw_console_output), (2 bytes).
    Removing kservice.o(i.rt_kputs), (56 bytes).
    Removing kservice.o(i.rt_malloc_align), (50 bytes).
    Removing kservice.o(i.rt_memcmp), (28 bytes).
    Removing kservice.o(i.rt_memcpy), (74 bytes).
    Removing kservice.o(i.rt_snprintf), (18 bytes).
    Removing kservice.o(i.rt_sprintf), (18 bytes).
    Removing kservice.o(i.rt_strcasecmp), (42 bytes).
    Removing kservice.o(i.rt_strcmp), (24 bytes).
    Removing kservice.o(i.rt_strdup), (36 bytes).
    Removing kservice.o(i.rt_strlen), (16 bytes).
    Removing kservice.o(i.rt_strnlen), (20 bytes).
    Removing kservice.o(i.rt_strstr), (54 bytes).
    Removing kservice.o(i.rt_vsprintf), (12 bytes).
    Removing mem.o(i.rt_memory_info), (32 bytes).
    Removing mem.o(i.rt_realloc), (220 bytes).
    Removing object.o(i.rt_object_get_length), (42 bytes).
    Removing object.o(i.rt_object_get_pointers), (70 bytes).
    Removing object.o(i.rt_object_get_type), (8 bytes).
    Removing object.o(i.rt_system_object_init), (2 bytes).
    Removing scheduler.o(i.rt_critical_level), (12 bytes).
    Removing thread.o(i.rt_thread_control), (118 bytes).
    Removing thread.o(i.rt_thread_delay), (4 bytes).
    Removing thread.o(i.rt_thread_delay_until), (112 bytes).
    Removing thread.o(i.rt_thread_delete), (76 bytes).
    Removing thread.o(i.rt_thread_detach), (96 bytes).
    Removing thread.o(i.rt_thread_find), (6 bytes).
    Removing thread.o(i.rt_thread_mdelay), (14 bytes).
    Removing thread.o(i.rt_thread_sleep), (64 bytes).
    Removing thread.o(i.rt_thread_yield), (96 bytes).
    Removing timer.o(i.rt_list_isempty), (14 bytes).
    Removing timer.o(i.rt_timer_check), (148 bytes).
    Removing timer.o(i.rt_timer_create), (46 bytes).
    Removing timer.o(i.rt_timer_delete), (40 bytes).
    Removing timer.o(i.rt_timer_next_timeout_tick), (40 bytes).
    Removing board.o(.rev16_text), (4 bytes).
    Removing board.o(.revsh_text), (4 bytes).
    Removing board.o(.rrx_text), (6 bytes).
    Removing board.o(i.rt_hw_us_delay), (52 bytes).
    Removing board.o(i.rt_os_tick_callback), (18 bytes).

438 unused section(s) (total 20574 bytes) removed from the image.

==============================================================================

Image Symbol Table

    Local Symbols

    Symbol Name                              Value     Ov Type        Size  Object(Section)

    ../clib/angel/boardlib.s                 0x00000000   Number         0  boardshut.o ABSOLUTE
    ../clib/angel/boardlib.s                 0x00000000   Number         0  boardinit2.o ABSOLUTE
    ../clib/angel/boardlib.s                 0x00000000   Number         0  boardinit3.o ABSOLUTE
    ../clib/angel/boardlib.s                 0x00000000   Number         0  boardinit1.o ABSOLUTE
    ../clib/angel/dczerorl2.s                0x00000000   Number         0  __dczerorl2.o ABSOLUTE
    ../clib/angel/handlers.s                 0x00000000   Number         0  __scatter_zi.o ABSOLUTE
    ../clib/angel/kernel.s                   0x00000000   Number         0  rtexit.o ABSOLUTE
    ../clib/angel/kernel.s                   0x00000000   Number         0  __rtentry4.o ABSOLUTE
    ../clib/angel/kernel.s                   0x00000000   Number         0  __rtentry2.o ABSOLUTE
    ../clib/angel/kernel.s                   0x00000000   Number         0  __rtentry.o ABSOLUTE
    ../clib/angel/kernel.s                   0x00000000   Number         0  rtexit2.o ABSOLUTE
    ../clib/angel/rt.s                       0x00000000   Number         0  rt_locale.o ABSOLUTE
    ../clib/angel/rt.s                       0x00000000   Number         0  rt_locale_intlibspace.o ABSOLUTE
    ../clib/angel/rt.s                       0x00000000   Number         0  rt_raise.o ABSOLUTE
    ../clib/angel/rt.s                       0x00000000   Number         0  rt_ctype_table.o ABSOLUTE
    ../clib/angel/scatter.s                  0x00000000   Number         0  __scatter.o ABSOLUTE
    ../clib/angel/startup.s                  0x00000000   Number         0  __main.o ABSOLUTE
    ../clib/angel/sys.s                      0x00000000   Number         0  use_no_semi.o ABSOLUTE
    ../clib/angel/sys.s                      0x00000000   Number         0  indicate_semi.o ABSOLUTE
    ../clib/angel/sys.s                      0x00000000   Number         0  libspace.o ABSOLUTE
    ../clib/angel/sys.s                      0x00000000   Number         0  sys_stackheap_outer.o ABSOLUTE
    ../clib/angel/sysapp.c                   0x00000000   Number         0  sys_wrch.o ABSOLUTE
    ../clib/angel/sysapp.c                   0x00000000   Number         0  sys_exit.o ABSOLUTE
    ../clib/angel/sysapp.c                   0x00000000   Number         0  sys_command.o ABSOLUTE
    ../clib/armsys.c                         0x00000000   Number         0  _get_argv_nomalloc.o ABSOLUTE
    ../clib/armsys.c                         0x00000000   Number         0  argv_veneer.o ABSOLUTE
    ../clib/armsys.c                         0x00000000   Number         0  argv_veneer.o ABSOLUTE
    ../clib/armsys.c                         0x00000000   Number         0  no_argv.o ABSOLUTE
    ../clib/bigflt.c                         0x00000000   Number         0  bigflt0.o ABSOLUTE
    ../clib/btod.s                           0x00000000   Number         0  btod.o ABSOLUTE
    ../clib/heapalloc.c                      0x00000000   Number         0  hrguard.o ABSOLUTE
    ../clib/heapaux.c                        0x00000000   Number         0  heapauxi.o ABSOLUTE
    ../clib/libinit.s                        0x00000000   Number         0  libshutdown.o ABSOLUTE
    ../clib/libinit.s                        0x00000000   Number         0  libinit2.o ABSOLUTE
    ../clib/libinit.s                        0x00000000   Number         0  libshutdown2.o ABSOLUTE
    ../clib/libinit.s                        0x00000000   Number         0  libinit.o ABSOLUTE
    ../clib/locale.c                         0x00000000   Number         0  _wcrtomb.o ABSOLUTE
    ../clib/locale.s                         0x00000000   Number         0  lc_numeric_c.o ABSOLUTE
    ../clib/locale.s                         0x00000000   Number         0  lc_ctype_c.o ABSOLUTE
    ../clib/longlong.s                       0x00000000   Number         0  lludiv10.o ABSOLUTE
    ../clib/memcpset.s                       0x00000000   Number         0  rt_memclr.o ABSOLUTE
    ../clib/memcpset.s                       0x00000000   Number         0  strncpy.o ABSOLUTE
    ../clib/memcpset.s                       0x00000000   Number         0  rt_memclr_w.o ABSOLUTE
    ../clib/memcpset.s                       0x00000000   Number         0  strcmpv7m.o ABSOLUTE
    ../clib/memcpset.s                       0x00000000   Number         0  rt_memcpy_w.o ABSOLUTE
    ../clib/misc.s                           0x00000000   Number         0  printf_stubs.o ABSOLUTE
    ../clib/printf.c                         0x00000000   Number         0  _printf_fp_hex.o ABSOLUTE
    ../clib/printf.c                         0x00000000   Number         0  _printf_fp_infnan.o ABSOLUTE
    ../clib/printf.c                         0x00000000   Number         0  __printf_nopercent.o ABSOLUTE
    ../clib/printf.c                         0x00000000   Number         0  _printf_wchar.o ABSOLUTE
    ../clib/printf.c                         0x00000000   Number         0  _sputc.o ABSOLUTE
    ../clib/printf.c                         0x00000000   Number         0  _snputc.o ABSOLUTE
    ../clib/printf.c                         0x00000000   Number         0  _printf_char.o ABSOLUTE
    ../clib/printf.c                         0x00000000   Number         0  _printf_longlong_dec.o ABSOLUTE
    ../clib/printf.c                         0x00000000   Number         0  _printf_oct_ll.o ABSOLUTE
    ../clib/printf.c                         0x00000000   Number         0  _printf_oct_int.o ABSOLUTE
    ../clib/printf.c                         0x00000000   Number         0  _printf_oct_int_ll.o ABSOLUTE
    ../clib/printf.c                         0x00000000   Number         0  _printf_hex_ll.o ABSOLUTE
    ../clib/printf.c                         0x00000000   Number         0  __printf_flags_ss.o ABSOLUTE
    ../clib/printf.c                         0x00000000   Number         0  vsnprintf.o ABSOLUTE
    ../clib/printf.c                         0x00000000   Number         0  _printf_hex_int.o ABSOLUTE
    ../clib/printf.c                         0x00000000   Number         0  _printf_hex_int_ll.o ABSOLUTE
    ../clib/printf.c                         0x00000000   Number         0  _printf_hex_ptr.o ABSOLUTE
    ../clib/printf.c                         0x00000000   Number         0  _printf_hex_int_ptr.o ABSOLUTE
    ../clib/printf.c                         0x00000000   Number         0  __2sprintf.o ABSOLUTE
    ../clib/printf.c                         0x00000000   Number         0  noretval__2sprintf.o ABSOLUTE
    ../clib/printf.c                         0x00000000   Number         0  __printf.o ABSOLUTE
    ../clib/printf.c                         0x00000000   Number         0  _printf_str.o ABSOLUTE
    ../clib/printf.c                         0x00000000   Number         0  __printf_flags.o ABSOLUTE
    ../clib/printf.c                         0x00000000   Number         0  __printf_ss.o ABSOLUTE
    ../clib/printf.c                         0x00000000   Number         0  _printf_hex_ll_ptr.o ABSOLUTE
    ../clib/printf.c                         0x00000000   Number         0  _printf_hex_int_ll_ptr.o ABSOLUTE
    ../clib/printf.c                         0x00000000   Number         0  _printf_intcommon.o ABSOLUTE
    ../clib/printf.c                         0x00000000   Number         0  __printf_wp.o ABSOLUTE
    ../clib/printf.c                         0x00000000   Number         0  __printf_flags_wp.o ABSOLUTE
    ../clib/printf.c                         0x00000000   Number         0  __printf_ss_wp.o ABSOLUTE
    ../clib/printf.c                         0x00000000   Number         0  __printf_flags_ss_wp.o ABSOLUTE
    ../clib/printf.c                         0x00000000   Number         0  _printf_wctomb.o ABSOLUTE
    ../clib/printf.c                         0x00000000   Number         0  _printf_pad.o ABSOLUTE
    ../clib/printf.c                         0x00000000   Number         0  _printf_truncate.o ABSOLUTE
    ../clib/printf.c                         0x00000000   Number         0  _printf_dec.o ABSOLUTE
    ../clib/printf.c                         0x00000000   Number         0  _printf_charcount.o ABSOLUTE
    ../clib/printf.c                         0x00000000   Number         0  _printf_fp_dec.o ABSOLUTE
    ../clib/printf.c                         0x00000000   Number         0  _printf_char_common.o ABSOLUTE
    ../clib/printf_percent.s                 0x00000000   Number         0  _printf_lli.o ABSOLUTE
    ../clib/printf_percent.s                 0x00000000   Number         0  _printf_a.o ABSOLUTE
    ../clib/printf_percent.s                 0x00000000   Number         0  _printf_g.o ABSOLUTE
    ../clib/printf_percent.s                 0x00000000   Number         0  _printf_s.o ABSOLUTE
    ../clib/printf_percent.s                 0x00000000   Number         0  _printf_e.o ABSOLUTE
    ../clib/printf_percent.s                 0x00000000   Number         0  _printf_c.o ABSOLUTE
    ../clib/printf_percent.s                 0x00000000   Number         0  _printf_n.o ABSOLUTE
    ../clib/printf_percent.s                 0x00000000   Number         0  _printf_f.o ABSOLUTE
    ../clib/printf_percent.s                 0x00000000   Number         0  _printf_i.o ABSOLUTE
    ../clib/printf_percent.s                 0x00000000   Number         0  _printf_percent.o ABSOLUTE
    ../clib/printf_percent.s                 0x00000000   Number         0  _printf_u.o ABSOLUTE
    ../clib/printf_percent.s                 0x00000000   Number         0  _printf_p.o ABSOLUTE
    ../clib/printf_percent.s                 0x00000000   Number         0  _printf_ls.o ABSOLUTE
    ../clib/printf_percent.s                 0x00000000   Number         0  _printf_o.o ABSOLUTE
    ../clib/printf_percent.s                 0x00000000   Number         0  _printf_d.o ABSOLUTE
    ../clib/printf_percent.s                 0x00000000   Number         0  _printf_llx.o ABSOLUTE
    ../clib/printf_percent.s                 0x00000000   Number         0  _printf_llo.o ABSOLUTE
    ../clib/printf_percent.s                 0x00000000   Number         0  _printf_x.o ABSOLUTE
    ../clib/printf_percent.s                 0x00000000   Number         0  _printf_lc.o ABSOLUTE
    ../clib/printf_percent.s                 0x00000000   Number         0  _printf_l.o ABSOLUTE
    ../clib/printf_percent.s                 0x00000000   Number         0  _printf_ll.o ABSOLUTE
    ../clib/printf_percent.s                 0x00000000   Number         0  _printf_llu.o ABSOLUTE
    ../clib/printf_percent.s                 0x00000000   Number         0  _printf_lld.o ABSOLUTE
    ../clib/printf_percent.s                 0x00000000   Number         0  _printf_percent_end.o ABSOLUTE
    ../clib/signal.c                         0x00000000   Number         0  defsig_other.o ABSOLUTE
    ../clib/signal.c                         0x00000000   Number         0  defsig_segv_inner.o ABSOLUTE
    ../clib/signal.c                         0x00000000   Number         0  defsig_cppl_inner.o ABSOLUTE
    ../clib/signal.c                         0x00000000   Number         0  defsig_pvfn_inner.o ABSOLUTE
    ../clib/signal.c                         0x00000000   Number         0  defsig_stak_inner.o ABSOLUTE
    ../clib/signal.c                         0x00000000   Number         0  defsig_rtred_inner.o ABSOLUTE
    ../clib/signal.c                         0x00000000   Number         0  defsig_fpe_inner.o ABSOLUTE
    ../clib/signal.c                         0x00000000   Number         0  defsig_general.o ABSOLUTE
    ../clib/signal.c                         0x00000000   Number         0  __raise.o ABSOLUTE
    ../clib/signal.c                         0x00000000   Number         0  defsig_rtmem_inner.o ABSOLUTE
    ../clib/signal.c                         0x00000000   Number         0  defsig_exit.o ABSOLUTE
    ../clib/signal.c                         0x00000000   Number         0  defsig_abrt_inner.o ABSOLUTE
    ../clib/signal.c                         0x00000000   Number         0  defsig_rtmem_outer.o ABSOLUTE
    ../clib/signal.c                         0x00000000   Number         0  defsig_rtmem_formal.o ABSOLUTE
    ../clib/signal.s                         0x00000000   Number         0  defsig.o ABSOLUTE
    ../clib/stdlib.c                         0x00000000   Number         0  exit.o ABSOLUTE
    ../clib/string.c                         0x00000000   Number         0  strlen.o ABSOLUTE
    ../clib/string.c                         0x00000000   Number         0  strncmp.o ABSOLUTE
    ../clib/string.c                         0x00000000   Number         0  strcat.o ABSOLUTE
    ../clib/string.c                         0x00000000   Number         0  strcpy.o ABSOLUTE
    ../clib/string.c                         0x00000000   Number         0  strstr.o ABSOLUTE
    ../fplib/dretinf.s                       0x00000000   Number         0  dretinf.o ABSOLUTE
    ../fplib/f2d.s                           0x00000000   Number         0  f2d.o ABSOLUTE
    ../fplib/fnaninf.s                       0x00000000   Number         0  fnaninf.o ABSOLUTE
    ../fplib/fpinit.s                        0x00000000   Number         0  fpinit.o ABSOLUTE
    ../fplib/istatus.s                       0x00000000   Number         0  istatus.o ABSOLUTE
    ../fplib/printf1.s                       0x00000000   Number         0  printf1.o ABSOLUTE
    ../fplib/printf2.s                       0x00000000   Number         0  printf2.o ABSOLUTE
    ../fplib/printf2a.s                      0x00000000   Number         0  printf2a.o ABSOLUTE
    ../fplib/printf2b.s                      0x00000000   Number         0  printf2b.o ABSOLUTE
    ../fplib/usenofp.s                       0x00000000   Number         0  usenofp.o ABSOLUTE
    ../mathlib/fpclassify.c                  0x00000000   Number         0  fpclassify.o ABSOLUTE
    C:\Keil_v5\ARM\PACK\Keil\STM32F4xx_DFP\1.0.8\Device\StdPeriph_Driver\src\misc.c 0x00000000   Number         0  misc.o ABSOLUTE
    C:\Keil_v5\ARM\PACK\Keil\STM32F4xx_DFP\1.0.8\Device\StdPeriph_Driver\src\stm32f4xx_dma.c 0x00000000   Number         0  stm32f4xx_dma.o ABSOLUTE
    C:\Keil_v5\ARM\PACK\Keil\STM32F4xx_DFP\1.0.8\Device\StdPeriph_Driver\src\stm32f4xx_exti.c 0x00000000   Number         0  stm32f4xx_exti.o ABSOLUTE
    C:\Keil_v5\ARM\PACK\Keil\STM32F4xx_DFP\1.0.8\Device\StdPeriph_Driver\src\stm32f4xx_gpio.c 0x00000000   Number         0  stm32f4xx_gpio.o ABSOLUTE
    C:\Keil_v5\ARM\PACK\Keil\STM32F4xx_DFP\1.0.8\Device\StdPeriph_Driver\src\stm32f4xx_rcc.c 0x00000000   Number         0  stm32f4xx_rcc.o ABSOLUTE
    C:\Keil_v5\ARM\PACK\Keil\STM32F4xx_DFP\1.0.8\Device\StdPeriph_Driver\src\stm32f4xx_syscfg.c 0x00000000   Number         0  stm32f4xx_syscfg.o ABSOLUTE
    C:\Keil_v5\ARM\PACK\Keil\STM32F4xx_DFP\1.0.8\Device\StdPeriph_Driver\src\stm32f4xx_tim.c 0x00000000   Number         0  stm32f4xx_tim.o ABSOLUTE
    C:\Keil_v5\ARM\PACK\Keil\STM32F4xx_DFP\1.0.8\Device\StdPeriph_Driver\src\stm32f4xx_usart.c 0x00000000   Number         0  stm32f4xx_usart.o ABSOLUTE
    C:\Keil_v5\ARM\PACK\RealThread\RT-Thread\3.1.5\components\device\device.c 0x00000000   Number         0  device.o ABSOLUTE
    C:\Keil_v5\ARM\PACK\RealThread\RT-Thread\3.1.5\components\finsh\cmd.c 0x00000000   Number         0  cmd.o ABSOLUTE
    C:\Keil_v5\ARM\PACK\RealThread\RT-Thread\3.1.5\components\finsh\msh.c 0x00000000   Number         0  msh.o ABSOLUTE
    C:\Keil_v5\ARM\PACK\RealThread\RT-Thread\3.1.5\components\finsh\shell.c 0x00000000   Number         0  shell.o ABSOLUTE
    C:\Keil_v5\ARM\PACK\RealThread\RT-Thread\3.1.5\libcpu\arm\cortex-m4\context_rvds.S 0x00000000   Number         0  context_rvds.o ABSOLUTE
    C:\Keil_v5\ARM\PACK\RealThread\RT-Thread\3.1.5\libcpu\arm\cortex-m4\cpuport.c 0x00000000   Number         0  cpuport.o ABSOLUTE
    C:\Keil_v5\ARM\PACK\RealThread\RT-Thread\3.1.5\src\clock.c 0x00000000   Number         0  clock.o ABSOLUTE
    C:\Keil_v5\ARM\PACK\RealThread\RT-Thread\3.1.5\src\components.c 0x00000000   Number         0  components.o ABSOLUTE
    C:\Keil_v5\ARM\PACK\RealThread\RT-Thread\3.1.5\src\idle.c 0x00000000   Number         0  idle.o ABSOLUTE
    C:\Keil_v5\ARM\PACK\RealThread\RT-Thread\3.1.5\src\ipc.c 0x00000000   Number         0  ipc.o ABSOLUTE
    C:\Keil_v5\ARM\PACK\RealThread\RT-Thread\3.1.5\src\irq.c 0x00000000   Number         0  irq.o ABSOLUTE
    C:\Keil_v5\ARM\PACK\RealThread\RT-Thread\3.1.5\src\kservice.c 0x00000000   Number         0  kservice.o ABSOLUTE
    C:\Keil_v5\ARM\PACK\RealThread\RT-Thread\3.1.5\src\mem.c 0x00000000   Number         0  mem.o ABSOLUTE
    C:\Keil_v5\ARM\PACK\RealThread\RT-Thread\3.1.5\src\mempool.c 0x00000000   Number         0  mempool.o ABSOLUTE
    C:\Keil_v5\ARM\PACK\RealThread\RT-Thread\3.1.5\src\object.c 0x00000000   Number         0  object.o ABSOLUTE
    C:\Keil_v5\ARM\PACK\RealThread\RT-Thread\3.1.5\src\scheduler.c 0x00000000   Number         0  scheduler.o ABSOLUTE
    C:\Keil_v5\ARM\PACK\RealThread\RT-Thread\3.1.5\src\thread.c 0x00000000   Number         0  thread.o ABSOLUTE
    C:\Keil_v5\ARM\PACK\RealThread\RT-Thread\3.1.5\src\timer.c 0x00000000   Number         0  timer.o ABSOLUTE
    C:\\Keil_v5\\ARM\\PACK\\Keil\\STM32F4xx_DFP\\1.0.8\\Device\\StdPeriph_Driver\\src\\misc.c 0x00000000   Number         0  misc.o ABSOLUTE
    C:\\Keil_v5\\ARM\\PACK\\Keil\\STM32F4xx_DFP\\1.0.8\\Device\\StdPeriph_Driver\\src\\stm32f4xx_dma.c 0x00000000   Number         0  stm32f4xx_dma.o ABSOLUTE
    C:\\Keil_v5\\ARM\\PACK\\Keil\\STM32F4xx_DFP\\1.0.8\\Device\\StdPeriph_Driver\\src\\stm32f4xx_exti.c 0x00000000   Number         0  stm32f4xx_exti.o ABSOLUTE
    C:\\Keil_v5\\ARM\\PACK\\Keil\\STM32F4xx_DFP\\1.0.8\\Device\\StdPeriph_Driver\\src\\stm32f4xx_gpio.c 0x00000000   Number         0  stm32f4xx_gpio.o ABSOLUTE
    C:\\Keil_v5\\ARM\\PACK\\Keil\\STM32F4xx_DFP\\1.0.8\\Device\\StdPeriph_Driver\\src\\stm32f4xx_rcc.c 0x00000000   Number         0  stm32f4xx_rcc.o ABSOLUTE
    C:\\Keil_v5\\ARM\\PACK\\Keil\\STM32F4xx_DFP\\1.0.8\\Device\\StdPeriph_Driver\\src\\stm32f4xx_syscfg.c 0x00000000   Number         0  stm32f4xx_syscfg.o ABSOLUTE
    C:\\Keil_v5\\ARM\\PACK\\Keil\\STM32F4xx_DFP\\1.0.8\\Device\\StdPeriph_Driver\\src\\stm32f4xx_tim.c 0x00000000   Number         0  stm32f4xx_tim.o ABSOLUTE
    C:\\Keil_v5\\ARM\\PACK\\Keil\\STM32F4xx_DFP\\1.0.8\\Device\\StdPeriph_Driver\\src\\stm32f4xx_usart.c 0x00000000   Number         0  stm32f4xx_usart.o ABSOLUTE
    Hardware\BC28\bc28.c                     0x00000000   Number         0  bc28.o ABSOLUTE
    Hardware\CD100M\cd100m.c                 0x00000000   Number         0  cd100m.o ABSOLUTE
    Hardware\HX711\hx711.c                   0x00000000   Number         0  hx711_1.o ABSOLUTE
    Hardware\LED\led.c                       0x00000000   Number         0  led.o ABSOLUTE
    Hardware\\BC28\\bc28.c                   0x00000000   Number         0  bc28.o ABSOLUTE
    Hardware\\CD100M\\cd100m.c               0x00000000   Number         0  cd100m.o ABSOLUTE
    Hardware\\HX711\\hx711.c                 0x00000000   Number         0  hx711_1.o ABSOLUTE
    Hardware\\LED\\led.c                     0x00000000   Number         0  led.o ABSOLUTE
    Hardware\lw_oopc\lw_oopc.c               0x00000000   Number         0  lw_oopc.o ABSOLUTE
    Hardware\zigbee_a72\zigbee_a72.c         0x00000000   Number         0  zigbee_a72.o ABSOLUTE
    RTE\Device\STM32F407ZE\startup_stm32f40_41xxx.s 0x00000000   Number         0  startup_stm32f40_41xxx.o ABSOLUTE
    RTE\Device\STM32F407ZE\system_stm32f4xx.c 0x00000000   Number         0  system_stm32f4xx.o ABSOLUTE
    RTE\RTOS\board.c                         0x00000000   Number         0  board.o ABSOLUTE
    RTE\RTOS\finsh_port.c                    0x00000000   Number         0  finsh_port.o ABSOLUTE
    RTE\\Device\\STM32F407ZE\\system_stm32f4xx.c 0x00000000   Number         0  system_stm32f4xx.o ABSOLUTE
    RTE\\RTOS\\board.c                       0x00000000   Number         0  board.o ABSOLUTE
    System\\delay\\delay.c                   0x00000000   Number         0  delay.o ABSOLUTE
    System\\sys\\sys.c                       0x00000000   Number         0  sys.o ABSOLUTE
    System\\usart\\usart.c                   0x00000000   Number         0  usart.o ABSOLUTE
    System\delay\delay.c                     0x00000000   Number         0  delay.o ABSOLUTE
    System\sys\sys.c                         0x00000000   Number         0  sys.o ABSOLUTE
    System\usart\usart.c                     0x00000000   Number         0  usart.o ABSOLUTE
    USER\APP\app.c                           0x00000000   Number         0  app.o ABSOLUTE
    USER\User_defined\user_defined.c         0x00000000   Number         0  user_defined.o ABSOLUTE
    USER\\APP\\app.c                         0x00000000   Number         0  app.o ABSOLUTE
    USER\\User_defined\\user_defined.c       0x00000000   Number         0  user_defined.o ABSOLUTE
    USER\\drv_bc28\\drv_bc28.c               0x00000000   Number         0  drv_bc28.o ABSOLUTE
    USER\\drv_hx711\\drv_hx711.c             0x00000000   Number         0  drv_hx711.o ABSOLUTE
    USER\drv_bc28\drv_bc28.c                 0x00000000   Number         0  drv_bc28.o ABSOLUTE
    USER\drv_hx711\drv_hx711.c               0x00000000   Number         0  drv_hx711.o ABSOLUTE
    dc.s                                     0x00000000   Number         0  dc.o ABSOLUTE
    main.c                                   0x00000000   Number         0  main.o ABSOLUTE
    main.c                                   0x00000000   Number         0  main.o ABSOLUTE
    RESET                                    0x08000000   Section      392  startup_stm32f40_41xxx.o(RESET)
    !!!main                                  0x08000188   Section        8  __main.o(!!!main)
    !!!scatter                               0x08000190   Section       52  __scatter.o(!!!scatter)
    !!dczerorl2                              0x080001c4   Section       90  __dczerorl2.o(!!dczerorl2)
    !!handler_zi                             0x08000220   Section       28  __scatter_zi.o(!!handler_zi)
    .ARM.Collect$$libinit$$00000000          0x0800023c   Section        2  libinit.o(.ARM.Collect$$libinit$$00000000)
    .ARM.Collect$$libinit$$00000001          0x0800023e   Section        4  libinit2.o(.ARM.Collect$$libinit$$00000001)
    .ARM.Collect$$libinit$$00000004          0x08000242   Section        0  libinit2.o(.ARM.Collect$$libinit$$00000004)
    .ARM.Collect$$libinit$$0000000A          0x08000242   Section        0  libinit2.o(.ARM.Collect$$libinit$$0000000A)
    .ARM.Collect$$libinit$$0000000C          0x08000242   Section        0  libinit2.o(.ARM.Collect$$libinit$$0000000C)
    .ARM.Collect$$libinit$$0000000E          0x08000242   Section        0  libinit2.o(.ARM.Collect$$libinit$$0000000E)
    .ARM.Collect$$libinit$$00000011          0x08000242   Section        0  libinit2.o(.ARM.Collect$$libinit$$00000011)
    .ARM.Collect$$libinit$$00000013          0x08000242   Section        0  libinit2.o(.ARM.Collect$$libinit$$00000013)
    .ARM.Collect$$libinit$$00000015          0x08000242   Section        0  libinit2.o(.ARM.Collect$$libinit$$00000015)
    .ARM.Collect$$libinit$$00000017          0x08000242   Section        0  libinit2.o(.ARM.Collect$$libinit$$00000017)
    .ARM.Collect$$libinit$$00000019          0x08000242   Section        0  libinit2.o(.ARM.Collect$$libinit$$00000019)
    .ARM.Collect$$libinit$$0000001B          0x08000242   Section        0  libinit2.o(.ARM.Collect$$libinit$$0000001B)
    .ARM.Collect$$libinit$$0000001D          0x08000242   Section        0  libinit2.o(.ARM.Collect$$libinit$$0000001D)
    .ARM.Collect$$libinit$$0000001F          0x08000242   Section        0  libinit2.o(.ARM.Collect$$libinit$$0000001F)
    .ARM.Collect$$libinit$$00000021          0x08000242   Section        0  libinit2.o(.ARM.Collect$$libinit$$00000021)
    .ARM.Collect$$libinit$$00000023          0x08000242   Section        0  libinit2.o(.ARM.Collect$$libinit$$00000023)
    .ARM.Collect$$libinit$$00000025          0x08000242   Section        0  libinit2.o(.ARM.Collect$$libinit$$00000025)
    .ARM.Collect$$libinit$$0000002C          0x08000242   Section        0  libinit2.o(.ARM.Collect$$libinit$$0000002C)
    .ARM.Collect$$libinit$$0000002E          0x08000242   Section        0  libinit2.o(.ARM.Collect$$libinit$$0000002E)
    .ARM.Collect$$libinit$$00000030          0x08000242   Section        0  libinit2.o(.ARM.Collect$$libinit$$00000030)
    .ARM.Collect$$libinit$$00000032          0x08000242   Section        0  libinit2.o(.ARM.Collect$$libinit$$00000032)
    .ARM.Collect$$libinit$$00000033          0x08000242   Section        2  libinit2.o(.ARM.Collect$$libinit$$00000033)
    .ARM.Collect$$libshutdown$$00000000      0x08000244   Section        2  libshutdown.o(.ARM.Collect$$libshutdown$$00000000)
    .ARM.Collect$$libshutdown$$00000002      0x08000246   Section        0  libshutdown2.o(.ARM.Collect$$libshutdown$$00000002)
    .ARM.Collect$$libshutdown$$00000004      0x08000246   Section        0  libshutdown2.o(.ARM.Collect$$libshutdown$$00000004)
    .ARM.Collect$$libshutdown$$00000007      0x08000246   Section        0  libshutdown2.o(.ARM.Collect$$libshutdown$$00000007)
    .ARM.Collect$$libshutdown$$0000000A      0x08000246   Section        0  libshutdown2.o(.ARM.Collect$$libshutdown$$0000000A)
    .ARM.Collect$$libshutdown$$0000000C      0x08000246   Section        0  libshutdown2.o(.ARM.Collect$$libshutdown$$0000000C)
    .ARM.Collect$$libshutdown$$0000000F      0x08000246   Section        0  libshutdown2.o(.ARM.Collect$$libshutdown$$0000000F)
    .ARM.Collect$$libshutdown$$00000010      0x08000246   Section        2  libshutdown2.o(.ARM.Collect$$libshutdown$$00000010)
    .ARM.Collect$$rtentry$$00000000          0x08000248   Section        0  __rtentry.o(.ARM.Collect$$rtentry$$00000000)
    .ARM.Collect$$rtentry$$00000002          0x08000248   Section        0  __rtentry2.o(.ARM.Collect$$rtentry$$00000002)
    .ARM.Collect$$rtentry$$00000004          0x08000248   Section        6  __rtentry4.o(.ARM.Collect$$rtentry$$00000004)
    .ARM.Collect$$rtentry$$00000009          0x0800024e   Section        0  __rtentry2.o(.ARM.Collect$$rtentry$$00000009)
    .ARM.Collect$$rtentry$$0000000A          0x0800024e   Section        4  __rtentry2.o(.ARM.Collect$$rtentry$$0000000A)
    .ARM.Collect$$rtentry$$0000000C          0x08000252   Section        0  __rtentry2.o(.ARM.Collect$$rtentry$$0000000C)
    .ARM.Collect$$rtentry$$0000000D          0x08000252   Section        8  __rtentry2.o(.ARM.Collect$$rtentry$$0000000D)
    .ARM.Collect$$rtexit$$00000000           0x0800025a   Section        2  rtexit.o(.ARM.Collect$$rtexit$$00000000)
    .ARM.Collect$$rtexit$$00000002           0x0800025c   Section        0  rtexit2.o(.ARM.Collect$$rtexit$$00000002)
    .ARM.Collect$$rtexit$$00000003           0x0800025c   Section        4  rtexit2.o(.ARM.Collect$$rtexit$$00000003)
    .ARM.Collect$$rtexit$$00000004           0x08000260   Section        6  rtexit2.o(.ARM.Collect$$rtexit$$00000004)
    .text                                    0x08000268   Section       64  startup_stm32f40_41xxx.o(.text)
    $v0                                      0x08000268   Number         0  startup_stm32f40_41xxx.o(.text)
    .text                                    0x080002a8   Section      308  context_rvds.o(.text)
    $v0                                      0x080002a8   Number         0  context_rvds.o(.text)
    .text                                    0x080003dc   Section        0  strcpy.o(.text)
    .text                                    0x08000424   Section        0  strlen.o(.text)
    .text                                    0x08000462   Section        0  strncmp.o(.text)
    .text                                    0x080004f8   Section        0  strcat.o(.text)
    .text                                    0x08000510   Section      100  rt_memcpy_w.o(.text)
    .text                                    0x08000574   Section       68  rt_memclr.o(.text)
    .text                                    0x080005b8   Section       78  rt_memclr_w.o(.text)
    .text                                    0x08000606   Section       86  strncpy.o(.text)
    .text                                    0x0800065c   Section        0  heapauxi.o(.text)
    .text                                    0x08000664   Section        8  libspace.o(.text)
    .text                                    0x0800066c   Section       74  sys_stackheap_outer.o(.text)
    .text                                    0x080006b6   Section        0  exit.o(.text)
    .text                                    0x080006c8   Section        0  sys_exit.o(.text)
    .text                                    0x080006d4   Section        2  use_no_semi.o(.text)
    .text                                    0x080006d6   Section        0  indicate_semi.o(.text)
    i.$Sub$$main                             0x080006d6   Section        0  components.o(i.$Sub$$main)
    i.APP_Start                              0x080006e0   Section        0  main.o(i.APP_Start)
    i.CD100M_INFO                            0x08000780   Section        0  app.o(i.CD100M_INFO)
    i.CD100M_uart_decode                     0x08000804   Section        0  cd100m.o(i.CD100M_uart_decode)
    i.GPIO_Init                              0x08000a0c   Section        0  stm32f4xx_gpio.o(i.GPIO_Init)
    i.GPIO_PinAFConfig                       0x08000a84   Section        0  stm32f4xx_gpio.o(i.GPIO_PinAFConfig)
    i.NVIC_Init                              0x08000aa4   Section        0  misc.o(i.NVIC_Init)
    i.NVIC_PriorityGroupConfig               0x08000b08   Section        0  misc.o(i.NVIC_PriorityGroupConfig)
    i.RCC_AHB1PeriphClockCmd                 0x08000b1c   Section        0  stm32f4xx_rcc.o(i.RCC_AHB1PeriphClockCmd)
    i.RCC_APB1PeriphClockCmd                 0x08000b34   Section        0  stm32f4xx_rcc.o(i.RCC_APB1PeriphClockCmd)
    i.RCC_APB2PeriphClockCmd                 0x08000b4c   Section        0  stm32f4xx_rcc.o(i.RCC_APB2PeriphClockCmd)
    i.RCC_GetClocksFreq                      0x08000b64   Section        0  stm32f4xx_rcc.o(i.RCC_GetClocksFreq)
    i.SetSysClock                            0x08000bf4   Section        0  system_stm32f4xx.o(i.SetSysClock)
    SetSysClock                              0x08000bf5   Thumb Code   162  system_stm32f4xx.o(i.SetSysClock)
    i.SystemInit                             0x08000ca8   Section        0  system_stm32f4xx.o(i.SystemInit)
    i.USART1_IRQHandler                      0x08000d04   Section        0  usart.o(i.USART1_IRQHandler)
    i.USART2_IRQHandler                      0x08000d2c   Section        0  usart.o(i.USART2_IRQHandler)
    i.USART3_IRQHandler                      0x08000dc8   Section        0  usart.o(i.USART3_IRQHandler)
    i.USART_ClearITPendingBit                0x08000e20   Section        0  stm32f4xx_usart.o(i.USART_ClearITPendingBit)
    i.USART_Cmd                              0x08000e2c   Section        0  stm32f4xx_usart.o(i.USART_Cmd)
    i.USART_GetFlagStatus                    0x08000e40   Section        0  stm32f4xx_usart.o(i.USART_GetFlagStatus)
    i.USART_GetITStatus                      0x08000e4e   Section        0  stm32f4xx_usart.o(i.USART_GetITStatus)
    i.USART_ITConfig                         0x08000e8c   Section        0  stm32f4xx_usart.o(i.USART_ITConfig)
    i.USART_Init                             0x08000ebc   Section        0  stm32f4xx_usart.o(i.USART_Init)
    i.USART_ReceiveData                      0x08000f68   Section        0  stm32f4xx_usart.o(i.USART_ReceiveData)
    i.USART_SendData                         0x08000f70   Section        0  stm32f4xx_usart.o(i.USART_SendData)
    i.__rt_ffs                               0x08000f78   Section        0  kservice.o(i.__rt_ffs)
    i._msh_exec_cmd                          0x08000fbc   Section        0  msh.o(i._msh_exec_cmd)
    _msh_exec_cmd                            0x08000fbd   Thumb Code   142  msh.o(i._msh_exec_cmd)
    i._rt_thread_init                        0x0800105c   Section        0  thread.o(i._rt_thread_init)
    _rt_thread_init                          0x0800105d   Thumb Code   108  thread.o(i._rt_thread_init)
    i._rt_timer_init                         0x080010d0   Section        0  timer.o(i._rt_timer_init)
    _rt_timer_init                           0x080010d1   Thumb Code    38  timer.o(i._rt_timer_init)
    i._rt_timer_remove                       0x080010f6   Section        0  timer.o(i._rt_timer_remove)
    _rt_timer_remove                         0x080010f7   Thumb Code    24  timer.o(i._rt_timer_remove)
    i._thread_cleanup_execute                0x0800110e   Section        0  thread.o(i._thread_cleanup_execute)
    _thread_cleanup_execute                  0x0800110f   Thumb Code    28  thread.o(i._thread_cleanup_execute)
    i.bus_fault_track                        0x0800112c   Section        0  cpuport.o(i.bus_fault_track)
    bus_fault_track                          0x0800112d   Thumb Code   110  cpuport.o(i.bus_fault_track)
    i.cmd_free                               0x08001214   Section        0  msh.o(i.cmd_free)
    i.cmd_ps                                 0x0800121e   Section        0  msh.o(i.cmd_ps)
    i.delay_ms                               0x08001228   Section        0  delay.o(i.delay_ms)
    i.finsh_get_prompt                       0x08001250   Section        0  shell.o(i.finsh_get_prompt)
    i.finsh_rx_ind                           0x080012b0   Section        0  shell.o(i.finsh_rx_ind)
    finsh_rx_ind                             0x080012b1   Thumb Code    14  shell.o(i.finsh_rx_ind)
    i.finsh_set_device                       0x080012c4   Section        0  shell.o(i.finsh_set_device)
    i.finsh_set_prompt_mode                  0x08001358   Section        0  shell.o(i.finsh_set_prompt_mode)
    i.finsh_system_function_init             0x0800136c   Section        0  shell.o(i.finsh_system_function_init)
    i.finsh_system_init                      0x08001378   Section        0  shell.o(i.finsh_system_init)
    i.finsh_thread_entry                     0x0800140c   Section        0  shell.o(i.finsh_thread_entry)
    i.hard_fault_track                       0x080016dc   Section        0  cpuport.o(i.hard_fault_track)
    hard_fault_track                         0x080016dd   Thumb Code    76  cpuport.o(i.hard_fault_track)
    i.hello                                  0x08001754   Section        0  cmd.o(i.hello)
    i.list                                   0x08001774   Section        0  cmd.o(i.list)
    i.list_device                            0x080017d8   Section        0  cmd.o(i.list_device)
    i.list_event                             0x080018dc   Section        0  cmd.o(i.list_event)
    i.list_find_init                         0x08001a0c   Section        0  cmd.o(i.list_find_init)
    list_find_init                           0x08001a0d   Thumb Code    36  cmd.o(i.list_find_init)
    i.list_get_next                          0x08001a30   Section        0  cmd.o(i.list_get_next)
    list_get_next                            0x08001a31   Thumb Code   106  cmd.o(i.list_get_next)
    i.list_mailbox                           0x08001a9c   Section        0  cmd.o(i.list_mailbox)
    i.list_mem                               0x08001bdc   Section        0  mem.o(i.list_mem)
    i.list_msgqueue                          0x08001c48   Section        0  cmd.o(i.list_msgqueue)
    i.list_mutex                             0x08001d74   Section        0  cmd.o(i.list_mutex)
    i.list_sem                               0x08001e6c   Section        0  cmd.o(i.list_sem)
    i.list_thread                            0x08001f8c   Section        0  cmd.o(i.list_thread)
    i.list_timer                             0x08002144   Section        0  cmd.o(i.list_timer)
    i.main                                   0x08002284   Section        0  main.o(i.main)
    i.main_thread_entry                      0x080022d4   Section        0  components.o(i.main_thread_entry)
    i.mem_manage_fault_track                 0x080022e4   Section        0  cpuport.o(i.mem_manage_fault_track)
    mem_manage_fault_track                   0x080022e5   Thumb Code    98  cpuport.o(i.mem_manage_fault_track)
    i.msh_auto_complete                      0x080023bc   Section        0  msh.o(i.msh_auto_complete)
    i.msh_exec                               0x08002468   Section        0  msh.o(i.msh_exec)
    i.msh_help                               0x080024cc   Section        0  msh.o(i.msh_help)
    i.msh_is_used                            0x08002544   Section        0  msh.o(i.msh_is_used)
    i.msh_split                              0x08002548   Section        0  msh.o(i.msh_split)
    msh_split                                0x08002549   Thumb Code   170  msh.o(i.msh_split)
    i.object_split                           0x08002618   Section        0  cmd.o(i.object_split)
    object_split                             0x08002619   Thumb Code    18  cmd.o(i.object_split)
    i.plug_holes                             0x08002630   Section        0  mem.o(i.plug_holes)
    plug_holes                               0x08002631   Thumb Code    80  mem.o(i.plug_holes)
    i.print_number                           0x08002684   Section        0  kservice.o(i.print_number)
    print_number                             0x08002685   Thumb Code   294  kservice.o(i.print_number)
    i.rt_application_init                    0x080027b0   Section        0  components.o(i.rt_application_init)
    i.rt_calloc                              0x080027dc   Section        0  mem.o(i.rt_calloc)
    i.rt_components_board_init               0x080027f8   Section        0  components.o(i.rt_components_board_init)
    i.rt_components_init                     0x08002814   Section        0  components.o(i.rt_components_init)
    i.rt_console_get_device                  0x08002830   Section        0  kservice.o(i.rt_console_get_device)
    i.rt_device_close                        0x0800283c   Section        0  device.o(i.rt_device_close)
    i.rt_device_find                         0x0800286c   Section        0  device.o(i.rt_device_find)
    i.rt_device_open                         0x08002874   Section        0  device.o(i.rt_device_open)
    i.rt_device_read                         0x0800291c   Section        0  device.o(i.rt_device_read)
    i.rt_device_set_rx_indicate              0x08002940   Section        0  device.o(i.rt_device_set_rx_indicate)
    i.rt_device_write                        0x08002946   Section        0  device.o(i.rt_device_write)
    i.rt_enter_critical                      0x0800296c   Section        0  scheduler.o(i.rt_enter_critical)
    i.rt_exit_critical                       0x08002988   Section        0  scheduler.o(i.rt_exit_critical)
    i.rt_free                                0x080029c0   Section        0  mem.o(i.rt_free)
    i.rt_heap_begin_get                      0x08002a84   Section        0  board.o(i.rt_heap_begin_get)
    i.rt_heap_end_get                        0x08002a8c   Section        0  board.o(i.rt_heap_end_get)
    i.rt_hw_board_init                       0x08002a94   Section        0  board.o(i.rt_hw_board_init)
    i.rt_hw_console_getchar                  0x08002aae   Section        0  finsh_port.o(i.rt_hw_console_getchar)
    i.rt_hw_console_output                   0x08002ab4   Section        0  board.o(i.rt_hw_console_output)
    i.rt_hw_hard_fault_exception             0x08002b00   Section        0  cpuport.o(i.rt_hw_hard_fault_exception)
    i.rt_hw_stack_init                       0x08002d18   Section        0  cpuport.o(i.rt_hw_stack_init)
    i.rt_interrupt_get_nest                  0x08002d54   Section        0  irq.o(i.rt_interrupt_get_nest)
    i.rt_ipc_list_resume                     0x08002d6c   Section        0  ipc.o(i.rt_ipc_list_resume)
    rt_ipc_list_resume                       0x08002d6d   Thumb Code    14  ipc.o(i.rt_ipc_list_resume)
    i.rt_ipc_list_suspend                    0x08002d7a   Section        0  ipc.o(i.rt_ipc_list_suspend)
    rt_ipc_list_suspend                      0x08002d7b   Thumb Code    80  ipc.o(i.rt_ipc_list_suspend)
    i.rt_kprintf                             0x08002dcc   Section        0  kservice.o(i.rt_kprintf)
    i.rt_list_insert_after                   0x08002e14   Section        0  object.o(i.rt_list_insert_after)
    rt_list_insert_after                     0x08002e15   Thumb Code    14  object.o(i.rt_list_insert_after)
    i.rt_list_insert_after                   0x08002e22   Section        0  thread.o(i.rt_list_insert_after)
    rt_list_insert_after                     0x08002e23   Thumb Code    14  thread.o(i.rt_list_insert_after)
    i.rt_list_insert_after                   0x08002e30   Section        0  timer.o(i.rt_list_insert_after)
    rt_list_insert_after                     0x08002e31   Thumb Code    14  timer.o(i.rt_list_insert_after)
    i.rt_list_insert_before                  0x08002e3e   Section        0  ipc.o(i.rt_list_insert_before)
    rt_list_insert_before                    0x08002e3f   Thumb Code    14  ipc.o(i.rt_list_insert_before)
    i.rt_list_isempty                        0x08002e4c   Section        0  cmd.o(i.rt_list_isempty)
    rt_list_isempty                          0x08002e4d   Thumb Code    14  cmd.o(i.rt_list_isempty)
    i.rt_list_isempty                        0x08002e5a   Section        0  ipc.o(i.rt_list_isempty)
    rt_list_isempty                          0x08002e5b   Thumb Code    14  ipc.o(i.rt_list_isempty)
    i.rt_list_len                            0x08002e68   Section        0  cmd.o(i.rt_list_len)
    rt_list_len                              0x08002e69   Thumb Code    18  cmd.o(i.rt_list_len)
    i.rt_list_remove                         0x08002e7a   Section        0  object.o(i.rt_list_remove)
    rt_list_remove                           0x08002e7b   Thumb Code    18  object.o(i.rt_list_remove)
    i.rt_list_remove                         0x08002e8c   Section        0  thread.o(i.rt_list_remove)
    rt_list_remove                           0x08002e8d   Thumb Code    18  thread.o(i.rt_list_remove)
    i.rt_list_remove                         0x08002e9e   Section        0  timer.o(i.rt_list_remove)
    rt_list_remove                           0x08002e9f   Thumb Code    18  timer.o(i.rt_list_remove)
    i.rt_malloc                              0x08002eb0   Section        0  mem.o(i.rt_malloc)
    i.rt_mb_create                           0x08002fa0   Section        0  ipc.o(i.rt_mb_create)
    i.rt_memmove                             0x08002fe8   Section        0  kservice.o(i.rt_memmove)
    i.rt_memset                              0x08003016   Section        0  kservice.o(i.rt_memset)
    i.rt_object_allocate                     0x0800305a   Section        0  object.o(i.rt_object_allocate)
    i.rt_object_delete                       0x080030a6   Section        0  object.o(i.rt_object_delete)
    i.rt_object_detach                       0x080030cc   Section        0  object.o(i.rt_object_detach)
    i.rt_object_find                         0x080030ec   Section        0  object.o(i.rt_object_find)
    i.rt_object_get_information              0x08003134   Section        0  object.o(i.rt_object_get_information)
    i.rt_object_init                         0x08003158   Section        0  object.o(i.rt_object_init)
    i.rt_object_is_systemobject              0x080031a8   Section        0  object.o(i.rt_object_is_systemobject)
    i.rt_schedule                            0x080031b8   Section        0  scheduler.o(i.rt_schedule)
    i.rt_schedule_insert_thread              0x08003210   Section        0  scheduler.o(i.rt_schedule_insert_thread)
    i.rt_schedule_remove_thread              0x08003260   Section        0  scheduler.o(i.rt_schedule_remove_thread)
    i.rt_sem_create                          0x080032ac   Section        0  ipc.o(i.rt_sem_create)
    i.rt_sem_init                            0x080032cc   Section        0  ipc.o(i.rt_sem_init)
    i.rt_sem_release                         0x080032f0   Section        0  ipc.o(i.rt_sem_release)
    i.rt_sem_take                            0x08003340   Section        0  ipc.o(i.rt_sem_take)
    i.rt_set_errno                           0x080033b0   Section        0  kservice.o(i.rt_set_errno)
    i.rt_show_version                        0x080033d0   Section        0  kservice.o(i.rt_show_version)
    i.rt_strncmp                             0x08003480   Section        0  kservice.o(i.rt_strncmp)
    i.rt_strncpy                             0x080034a0   Section        0  kservice.o(i.rt_strncpy)
    i.rt_system_heap_init                    0x080034c8   Section        0  mem.o(i.rt_system_heap_init)
    i.rt_system_scheduler_init               0x08003578   Section        0  scheduler.o(i.rt_system_scheduler_init)
    i.rt_system_scheduler_start              0x080035ac   Section        0  scheduler.o(i.rt_system_scheduler_start)
    i.rt_system_timer_init                   0x080035d4   Section        0  timer.o(i.rt_system_timer_init)
    i.rt_system_timer_thread_init            0x080035ec   Section        0  timer.o(i.rt_system_timer_thread_init)
    i.rt_thread_create                       0x080035ee   Section        0  thread.o(i.rt_thread_create)
    i.rt_thread_exit                         0x08003638   Section        0  thread.o(i.rt_thread_exit)
    i.rt_thread_idle_entry                   0x08003690   Section        0  idle.o(i.rt_thread_idle_entry)
    rt_thread_idle_entry                     0x08003691   Thumb Code     6  idle.o(i.rt_thread_idle_entry)
    i.rt_thread_idle_excute                  0x08003698   Section        0  idle.o(i.rt_thread_idle_excute)
    i.rt_thread_idle_init                    0x080036e0   Section        0  idle.o(i.rt_thread_idle_init)
    i.rt_thread_init                         0x08003718   Section        0  thread.o(i.rt_thread_init)
    i.rt_thread_resume                       0x08003748   Section        0  thread.o(i.rt_thread_resume)
    i.rt_thread_self                         0x08003784   Section        0  thread.o(i.rt_thread_self)
    i.rt_thread_startup                      0x08003790   Section        0  thread.o(i.rt_thread_startup)
    i.rt_thread_suspend                      0x080037bc   Section        0  thread.o(i.rt_thread_suspend)
    i.rt_thread_timeout                      0x080037fe   Section        0  thread.o(i.rt_thread_timeout)
    i.rt_tick_get                            0x08003820   Section        0  clock.o(i.rt_tick_get)
    i.rt_timer_control                       0x0800382c   Section        0  timer.o(i.rt_timer_control)
    i.rt_timer_detach                        0x08003874   Section        0  timer.o(i.rt_timer_detach)
    i.rt_timer_init                          0x0800389c   Section        0  timer.o(i.rt_timer_init)
    i.rt_timer_start                         0x080038c4   Section        0  timer.o(i.rt_timer_start)
    i.rt_timer_stop                          0x08003954   Section        0  timer.o(i.rt_timer_stop)
    i.rt_vsnprintf                           0x08003984   Section        0  kservice.o(i.rt_vsnprintf)
    i.rti_board_end                          0x08003be4   Section        0  components.o(i.rti_board_end)
    rti_board_end                            0x08003be5   Thumb Code     4  components.o(i.rti_board_end)
    i.rti_board_start                        0x08003be8   Section        0  components.o(i.rti_board_start)
    rti_board_start                          0x08003be9   Thumb Code     4  components.o(i.rti_board_start)
    i.rti_end                                0x08003bec   Section        0  components.o(i.rti_end)
    rti_end                                  0x08003bed   Thumb Code     4  components.o(i.rti_end)
    i.rti_start                              0x08003bf0   Section        0  components.o(i.rti_start)
    rti_start                                0x08003bf1   Thumb Code     4  components.o(i.rti_start)
    i.rtthread_startup                       0x08003bf4   Section        0  components.o(i.rtthread_startup)
    i.show_wait_queue                        0x08003c20   Section        0  cmd.o(i.show_wait_queue)
    show_wait_queue                          0x08003c21   Thumb Code    38  cmd.o(i.show_wait_queue)
    i.skip_atoi                              0x08003c50   Section        0  kservice.o(i.skip_atoi)
    skip_atoi                                0x08003c51   Thumb Code    40  kservice.o(i.skip_atoi)
    i.uart2_init                             0x08003c78   Section        0  usart.o(i.uart2_init)
    i.uart2_send                             0x08003d14   Section        0  usart.o(i.uart2_send)
    i.uart_init                              0x08003d58   Section        0  board.o(i.uart_init)
    uart_init                                0x08003d59   Thumb Code    14  board.o(i.uart_init)
    i.usage_fault_track                      0x08003d68   Section        0  cpuport.o(i.usage_fault_track)
    usage_fault_track                        0x08003d69   Thumb Code   100  cpuport.o(i.usage_fault_track)
    i.usart_init                             0x08003e38   Section        0  usart.o(i.usart_init)
    i.version                                0x08003ed4   Section        0  cmd.o(i.version)
    x$fpl$fpinit                             0x08003ede   Section       10  fpinit.o(x$fpl$fpinit)
    $v0                                      0x08003ede   Number         0  fpinit.o(x$fpl$fpinit)
    .constdata                               0x08003ee8   Section       88  cmd.o(.constdata)
    device_type_str                          0x08003ee8   Data          88  cmd.o(.constdata)
    .constdata                               0x08003f40   Section      290  kservice.o(.constdata)
    small_digits                             0x08004040   Data          17  kservice.o(.constdata)
    large_digits                             0x08004051   Data          17  kservice.o(.constdata)
    .conststring                             0x08004064   Section      381  cmd.o(.conststring)
    .rodata.name                             0x080041e1   Section        6  cmd.o(.rodata.name)
    .rodata.name                             0x080041e7   Section       16  cmd.o(.rodata.name)
    .rodata.name                             0x080041f7   Section        8  cmd.o(.rodata.name)
    .rodata.name                             0x080041ff   Section       35  cmd.o(.rodata.name)
    .rodata.name                             0x08004222   Section       14  cmd.o(.rodata.name)
    .rodata.name                             0x08004230   Section       35  cmd.o(.rodata.name)
    .rodata.name                             0x08004253   Section       12  cmd.o(.rodata.name)
    .rodata.name                             0x0800425f   Section       12  cmd.o(.rodata.name)
    .rodata.name                             0x0800426b   Section       18  cmd.o(.rodata.name)
    .rodata.name                             0x0800427d   Section       12  cmd.o(.rodata.name)
    .rodata.name                             0x08004289   Section        9  cmd.o(.rodata.name)
    .rodata.name                             0x08004292   Section       25  cmd.o(.rodata.name)
    .rodata.name                             0x080042ab   Section       15  cmd.o(.rodata.name)
    .rodata.name                             0x080042ba   Section       25  cmd.o(.rodata.name)
    .rodata.name                             0x080042d3   Section       11  cmd.o(.rodata.name)
    .rodata.name                             0x080042de   Section       21  cmd.o(.rodata.name)
    .rodata.name                             0x080042f3   Section       17  cmd.o(.rodata.name)
    .rodata.name                             0x08004304   Section       21  cmd.o(.rodata.name)
    .rodata.name                             0x08004319   Section       11  cmd.o(.rodata.name)
    .rodata.name                             0x08004324   Section       21  cmd.o(.rodata.name)
    .rodata.name                             0x08004339   Section       17  cmd.o(.rodata.name)
    .rodata.name                             0x0800434a   Section       21  cmd.o(.rodata.name)
    .rodata.name                             0x0800435f   Section       13  cmd.o(.rodata.name)
    .rodata.name                             0x0800436c   Section       24  cmd.o(.rodata.name)
    .rodata.name                             0x08004384   Section       19  cmd.o(.rodata.name)
    .rodata.name                             0x08004397   Section       24  cmd.o(.rodata.name)
    .rodata.name                             0x080043af   Section       14  cmd.o(.rodata.name)
    .rodata.name                             0x080043bd   Section       29  cmd.o(.rodata.name)
    .rodata.name                             0x080043da   Section       20  cmd.o(.rodata.name)
    .rodata.name                             0x080043ee   Section       29  cmd.o(.rodata.name)
    .rodata.name                             0x0800440b   Section       11  cmd.o(.rodata.name)
    .rodata.name                             0x08004416   Section       21  cmd.o(.rodata.name)
    .rodata.name                             0x0800442b   Section       17  cmd.o(.rodata.name)
    .rodata.name                             0x0800443c   Section       21  cmd.o(.rodata.name)
    .rodata.name                             0x08004451   Section       12  cmd.o(.rodata.name)
    .rodata.name                             0x0800445d   Section       22  cmd.o(.rodata.name)
    .rodata.name                             0x08004473   Section       18  cmd.o(.rodata.name)
    .rodata.name                             0x08004485   Section       22  cmd.o(.rodata.name)
    .rodata.name                             0x0800449b   Section        5  cmd.o(.rodata.name)
    .rodata.name                             0x080044a0   Section       26  cmd.o(.rodata.name)
    .rodata.name                             0x080044ba   Section       11  msh.o(.rodata.name)
    .rodata.name                             0x080044c5   Section       22  msh.o(.rodata.name)
    .rodata.name                             0x080044db   Section        9  msh.o(.rodata.name)
    .rodata.name                             0x080044e4   Section       28  msh.o(.rodata.name)
    .rodata.name                             0x08004500   Section       11  msh.o(.rodata.name)
    .rodata.name                             0x0800450b   Section       37  msh.o(.rodata.name)
    .rodata.name                             0x08004530   Section        9  mem.o(.rodata.name)
    .rodata.name                             0x08004539   Section       30  mem.o(.rodata.name)
    .rti_fn.0                                0x08004558   Section        4  components.o(.rti_fn.0)
    __tagsym$$used                           0x08004558   Number         0  components.o(.rti_fn.0)
    .rti_fn.0.end                            0x0800455c   Section        4  components.o(.rti_fn.0.end)
    __tagsym$$used                           0x0800455c   Number         0  components.o(.rti_fn.0.end)
    .rti_fn.1                                0x08004560   Section        4  board.o(.rti_fn.1)
    __tagsym$$used                           0x08004560   Number         0  board.o(.rti_fn.1)
    .rti_fn.1.end                            0x08004564   Section        4  components.o(.rti_fn.1.end)
    __tagsym$$used                           0x08004564   Number         0  components.o(.rti_fn.1.end)
    .rti_fn.6                                0x08004568   Section        4  shell.o(.rti_fn.6)
    __tagsym$$used                           0x08004568   Number         0  shell.o(.rti_fn.6)
    .rti_fn.6.end                            0x0800456c   Section        4  components.o(.rti_fn.6.end)
    __tagsym$$used                           0x0800456c   Number         0  components.o(.rti_fn.6.end)
    FSymTab                                  0x08004570   Section      240  cmd.o(FSymTab)
    __tagsym$$used                           0x08004570   Number         0  cmd.o(FSymTab)
    __tagsym$$used                           0x0800457c   Number         0  cmd.o(FSymTab)
    __tagsym$$used                           0x08004588   Number         0  cmd.o(FSymTab)
    __tagsym$$used                           0x08004594   Number         0  cmd.o(FSymTab)
    __tagsym$$used                           0x080045a0   Number         0  cmd.o(FSymTab)
    __tagsym$$used                           0x080045ac   Number         0  cmd.o(FSymTab)
    __tagsym$$used                           0x080045b8   Number         0  cmd.o(FSymTab)
    __tagsym$$used                           0x080045c4   Number         0  cmd.o(FSymTab)
    __tagsym$$used                           0x080045d0   Number         0  cmd.o(FSymTab)
    __tagsym$$used                           0x080045dc   Number         0  cmd.o(FSymTab)
    __tagsym$$used                           0x080045e8   Number         0  cmd.o(FSymTab)
    __tagsym$$used                           0x080045f4   Number         0  cmd.o(FSymTab)
    __tagsym$$used                           0x08004600   Number         0  cmd.o(FSymTab)
    __tagsym$$used                           0x0800460c   Number         0  cmd.o(FSymTab)
    __tagsym$$used                           0x08004618   Number         0  cmd.o(FSymTab)
    __tagsym$$used                           0x08004624   Number         0  cmd.o(FSymTab)
    __tagsym$$used                           0x08004630   Number         0  cmd.o(FSymTab)
    __tagsym$$used                           0x0800463c   Number         0  cmd.o(FSymTab)
    __tagsym$$used                           0x08004648   Number         0  cmd.o(FSymTab)
    __tagsym$$used                           0x08004654   Number         0  cmd.o(FSymTab)
    FSymTab                                  0x08004660   Section       36  msh.o(FSymTab)
    __tagsym$$used                           0x08004660   Number         0  msh.o(FSymTab)
    __tagsym$$used                           0x0800466c   Number         0  msh.o(FSymTab)
    __tagsym$$used                           0x08004678   Number         0  msh.o(FSymTab)
    FSymTab                                  0x08004684   Section       12  mem.o(FSymTab)
    __tagsym$$used                           0x08004684   Number         0  mem.o(FSymTab)
    .data                                    0x20000000   Section        4  main.o(.data)
    .data                                    0x20000004   Section       21  app.o(.data)
    g_cnt                                    0x20000006   Data           2  app.o(.data)
    g_recv_da                                0x20000014   Data           5  app.o(.data)
    .data                                    0x2000001c   Section        4  app.o(.data)
    .data                                    0x20000020   Section        4  app.o(.data)
    .data                                    0x20000024   Section      126  cd100m.o(.data)
    g_sta_auto_output                        0x20000024   Data           1  cd100m.o(.data)
    g_dbg_auto_output                        0x20000025   Data           1  cd100m.o(.data)
    frame_id                                 0x20000027   Data           1  cd100m.o(.data)
    data_len                                 0x20000028   Data           1  cd100m.o(.data)
    data_cnt                                 0x20000029   Data           1  cd100m.o(.data)
    g_cmd_get_id                             0x2000002a   Data           4  cd100m.o(.data)
    g_cmd_get_RevID                          0x2000002e   Data           4  cd100m.o(.data)
    g_cmd_get_debug_info                     0x20000032   Data           4  cd100m.o(.data)
    g_cmd_get_paras                          0x20000036   Data           4  cd100m.o(.data)
    g_cmd_get_modu_sta                       0x2000003a   Data           4  cd100m.o(.data)
    g_cmd_get_cup_sta                        0x2000003e   Data           4  cd100m.o(.data)
    g_cmd_get_xtalk                          0x20000042   Data           4  cd100m.o(.data)
    g_cmd_hot_sta                            0x20000046   Data           4  cd100m.o(.data)
    g_cmd_hot_stop                           0x2000004a   Data           4  cd100m.o(.data)
    g_cmd_init                               0x2000004e   Data           4  cd100m.o(.data)
    g_cmd_start_app                          0x20000052   Data           4  cd100m.o(.data)
    g_cmd_stop_app                           0x20000056   Data           4  cd100m.o(.data)
    g_cmd_set_iterat                         0x2000005a   Data           4  cd100m.o(.data)
    g_cmd_set_para1                          0x2000005e   Data           4  cd100m.o(.data)
    g_cmd_set_para2                          0x20000062   Data           4  cd100m.o(.data)
    g_cmd_set_para3                          0x20000066   Data           4  cd100m.o(.data)
    g_cmd_set_para4                          0x2000006a   Data           4  cd100m.o(.data)
    g_cmd_set_para5                          0x2000006e   Data           4  cd100m.o(.data)
    g_cmd_set_para6                          0x20000072   Data           4  cd100m.o(.data)
    g_cmd_set_para7                          0x20000076   Data           4  cd100m.o(.data)
    g_cmd_set_para8                          0x2000007a   Data           4  cd100m.o(.data)
    g_cmd_set_para9                          0x2000007e   Data           4  cd100m.o(.data)
    g_cmd_set_para10                         0x20000082   Data           4  cd100m.o(.data)
    g_cmd_set_para11                         0x20000086   Data           4  cd100m.o(.data)
    g_cmd_sta_auto_en                        0x2000008a   Data           4  cd100m.o(.data)
    g_cmd_sta_auto_dis                       0x2000008e   Data           4  cd100m.o(.data)
    g_cmd_dbg_auto_en                        0x20000092   Data           4  cd100m.o(.data)
    g_cmd_dbg_auto_dis                       0x20000096   Data           4  cd100m.o(.data)
    g_cmd_set_baud                           0x2000009a   Data           4  cd100m.o(.data)
    g_cmd_clr_cupsta                         0x2000009e   Data           4  cd100m.o(.data)
    .data                                    0x200000a2   Section       16  cd100m.o(.data)
    .data                                    0x200000b2   Section        1  bc28.o(.data)
    .data                                    0x200000b4   Section        2  bc28.o(.data)
    .data                                    0x200000b8   Section       20  usart.o(.data)
    g_cnt                                    0x200000b8   Data           2  usart.o(.data)
    NVIC_InitStructure                       0x200000ba   Data           4  usart.o(.data)
    g_recv_da                                0x200000be   Data           5  usart.o(.data)
    GPIO_InitStructure                       0x200000c4   Data           8  usart.o(.data)
    .data                                    0x200000cc   Section        4  usart.o(.data)
    .data                                    0x200000d0   Section       16  stm32f4xx_rcc.o(.data)
    APBAHBPrescTable                         0x200000d0   Data          16  stm32f4xx_rcc.o(.data)
    .data                                    0x200000e0   Section       24  shell.o(.data)
    finsh_prompt_custom                      0x200000f0   Data           4  shell.o(.data)
    .data                                    0x200000f8   Section        4  cpuport.o(.data)
    rt_exception_hook                        0x200000f8   Data           4  cpuport.o(.data)
    .data                                    0x200000fc   Section        4  cpuport.o(.data)
    .data                                    0x20000100   Section        4  cpuport.o(.data)
    .data                                    0x20000104   Section        4  cpuport.o(.data)
    .data                                    0x20000108   Section        4  clock.o(.data)
    rt_tick                                  0x20000108   Data           4  clock.o(.data)
    .data                                    0x2000010c   Section        1  irq.o(.data)
    .data                                    0x20000110   Section        8  kservice.o(.data)
    _console_device                          0x20000110   Data           4  kservice.o(.data)
    __rt_errno                               0x20000114   Data           4  kservice.o(.data)
    .data                                    0x20000118   Section       24  mem.o(.data)
    heap_ptr                                 0x20000118   Data           4  mem.o(.data)
    heap_end                                 0x2000011c   Data           4  mem.o(.data)
    lfree                                    0x20000120   Data           4  mem.o(.data)
    mem_size_aligned                         0x20000124   Data           4  mem.o(.data)
    used_mem                                 0x20000128   Data           4  mem.o(.data)
    max_mem                                  0x2000012c   Data           4  mem.o(.data)
    .data                                    0x20000130   Section      128  object.o(.data)
    rt_object_container                      0x20000130   Data         128  object.o(.data)
    .data                                    0x200001b0   Section       20  scheduler.o(.data)
    rt_scheduler_lock_nest                   0x200001b2   Data           2  scheduler.o(.data)
    .data                                    0x200001c4   Section       12  timer.o(.data)
    random_nr                                0x200001c4   Data           4  timer.o(.data)
    rt_timer_list                            0x200001c8   Data           8  timer.o(.data)
    .bss                                     0x200001d0   Section     1024  app.o(.bss)
    .bss                                     0x200005d0   Section      128  app.o(.bss)
    .bss                                     0x20000650   Section       44  drv_bc28.o(.bss)
    .bss                                     0x2000067c   Section       48  cd100m.o(.bss)
    frame_data                               0x2000067c   Data          19  cd100m.o(.bss)
    .bss                                     0x200006ac   Section       19  cd100m.o(.bss)
    .bss                                     0x200006bf   Section      200  bc28.o(.bss)
    .bss                                     0x20000788   Section       16  usart.o(.bss)
    USART_InitStructure                      0x20000788   Data          16  usart.o(.bss)
    .bss                                     0x20000798   Section      257  shell.o(.bss)
    finsh_prompt                             0x20000798   Data         257  shell.o(.bss)
    .bss                                     0x2000089c   Section      384  idle.o(.bss)
    idle                                     0x2000089c   Data         128  idle.o(.bss)
    rt_thread_stack                          0x2000091c   Data         256  idle.o(.bss)
    .bss                                     0x20000a1c   Section      256  kservice.o(.bss)
    rt_log_buf                               0x20000a1c   Data         256  kservice.o(.bss)
    .bss                                     0x20000b1c   Section       32  mem.o(.bss)
    heap_sem                                 0x20000b1c   Data          32  mem.o(.bss)
    .bss                                     0x20000b3c   Section      256  scheduler.o(.bss)
    .bss                                     0x20000c3c   Section    15360  board.o(.bss)
    rt_heap                                  0x20000c3c   Data       15360  board.o(.bss)
    .bss                                     0x2000483c   Section       96  libspace.o(.bss)
    HEAP                                     0x200048a0   Section      512  startup_stm32f40_41xxx.o(HEAP)
    Heap_Mem                                 0x200048a0   Data         512  startup_stm32f40_41xxx.o(HEAP)
    STACK                                    0x20004aa0   Section     1024  startup_stm32f40_41xxx.o(STACK)
    Stack_Mem                                0x20004aa0   Data        1024  startup_stm32f40_41xxx.o(STACK)
    __initial_sp                             0x20004ea0   Data           0  startup_stm32f40_41xxx.o(STACK)

    Global Symbols

    Symbol Name                              Value     Ov Type        Size  Object(Section)

    BuildAttributes$$THM_ISAv4$E$P$D$K$B$S$7EM$VFPi3$EXTD16$VFPS$VFMA$PE$A:L22UL41UL21$X:L11$S22US41US21$IEEE1$IW$USESV6$~STKCKD$USESV7$~SHL$OTIME$ROPI$IEEEJ$EBA8$UX$STANDARDLIB$REQ8$PRES8$EABIv2 0x00000000   Number         0  anon$$obj.o ABSOLUTE
    __ARM_use_no_argv                        0x00000000   Number         0  main.o ABSOLUTE
    _printf_flags                            0x00000000   Number         0  printf_stubs.o ABSOLUTE
    _printf_return_value                     0x00000000   Number         0  printf_stubs.o ABSOLUTE
    _printf_sizespec                         0x00000000   Number         0  printf_stubs.o ABSOLUTE
    _printf_widthprec                        0x00000000   Number         0  printf_stubs.o ABSOLUTE
    __ARM_exceptions_init                     - Undefined Weak Reference
    __alloca_initialize                       - Undefined Weak Reference
    __arm_preinit_                            - Undefined Weak Reference
    __cpp_initialize__aeabi_                  - Undefined Weak Reference
    __cxa_finalize                            - Undefined Weak Reference
    __sigvec_lookup                           - Undefined Weak Reference
    _atexit_init                              - Undefined Weak Reference
    _call_atexit_fns                          - Undefined Weak Reference
    _clock_init                               - Undefined Weak Reference
    _fp_trap_init                             - Undefined Weak Reference
    _fp_trap_shutdown                         - Undefined Weak Reference
    _get_lc_collate                           - Undefined Weak Reference
    _get_lc_monetary                          - Undefined Weak Reference
    _get_lc_time                              - Undefined Weak Reference
    _getenv_init                              - Undefined Weak Reference
    _handle_redirection                       - Undefined Weak Reference
    _init_alloc                               - Undefined Weak Reference
    _init_user_alloc                          - Undefined Weak Reference
    _initio                                   - Undefined Weak Reference
    _printf_mbtowc                            - Undefined Weak Reference
    _printf_wc                                - Undefined Weak Reference
    _rand_init                                - Undefined Weak Reference
    _signal_finish                            - Undefined Weak Reference
    _signal_init                              - Undefined Weak Reference
    _terminate_alloc                          - Undefined Weak Reference
    _terminate_user_alloc                     - Undefined Weak Reference
    _terminateio                              - Undefined Weak Reference
    __Vectors_Size                           0x00000188   Number         0  startup_stm32f40_41xxx.o ABSOLUTE
    __Vectors                                0x08000000   Data           4  startup_stm32f40_41xxx.o(RESET)
    __Vectors_End                            0x08000188   Data           0  startup_stm32f40_41xxx.o(RESET)
    __main                                   0x08000189   Thumb Code     8  __main.o(!!!main)
    __scatterload                            0x08000191   Thumb Code     0  __scatter.o(!!!scatter)
    __scatterload_rt2                        0x08000191   Thumb Code    44  __scatter.o(!!!scatter)
    __scatterload_rt2_thumb_only             0x08000191   Thumb Code     0  __scatter.o(!!!scatter)
    __scatterload_null                       0x0800019f   Thumb Code     0  __scatter.o(!!!scatter)
    __decompress                             0x080001c5   Thumb Code    90  __dczerorl2.o(!!dczerorl2)
    __decompress1                            0x080001c5   Thumb Code     0  __dczerorl2.o(!!dczerorl2)
    __scatterload_zeroinit                   0x08000221   Thumb Code    28  __scatter_zi.o(!!handler_zi)
    __rt_lib_init                            0x0800023d   Thumb Code     0  libinit.o(.ARM.Collect$$libinit$$00000000)
    __rt_lib_init_fp_1                       0x0800023f   Thumb Code     0  libinit2.o(.ARM.Collect$$libinit$$00000001)
    __rt_lib_init_alloca_1                   0x08000243   Thumb Code     0  libinit2.o(.ARM.Collect$$libinit$$0000002E)
    __rt_lib_init_argv_1                     0x08000243   Thumb Code     0  libinit2.o(.ARM.Collect$$libinit$$0000002C)
    __rt_lib_init_atexit_1                   0x08000243   Thumb Code     0  libinit2.o(.ARM.Collect$$libinit$$0000001B)
    __rt_lib_init_clock_1                    0x08000243   Thumb Code     0  libinit2.o(.ARM.Collect$$libinit$$00000021)
    __rt_lib_init_cpp_1                      0x08000243   Thumb Code     0  libinit2.o(.ARM.Collect$$libinit$$00000032)
    __rt_lib_init_exceptions_1               0x08000243   Thumb Code     0  libinit2.o(.ARM.Collect$$libinit$$00000030)
    __rt_lib_init_fp_trap_1                  0x08000243   Thumb Code     0  libinit2.o(.ARM.Collect$$libinit$$0000001F)
    __rt_lib_init_getenv_1                   0x08000243   Thumb Code     0  libinit2.o(.ARM.Collect$$libinit$$00000023)
    __rt_lib_init_heap_1                     0x08000243   Thumb Code     0  libinit2.o(.ARM.Collect$$libinit$$0000000A)
    __rt_lib_init_lc_collate_1               0x08000243   Thumb Code     0  libinit2.o(.ARM.Collect$$libinit$$00000011)
    __rt_lib_init_lc_ctype_1                 0x08000243   Thumb Code     0  libinit2.o(.ARM.Collect$$libinit$$00000013)
    __rt_lib_init_lc_monetary_1              0x08000243   Thumb Code     0  libinit2.o(.ARM.Collect$$libinit$$00000015)
    __rt_lib_init_lc_numeric_1               0x08000243   Thumb Code     0  libinit2.o(.ARM.Collect$$libinit$$00000017)
    __rt_lib_init_lc_time_1                  0x08000243   Thumb Code     0  libinit2.o(.ARM.Collect$$libinit$$00000019)
    __rt_lib_init_preinit_1                  0x08000243   Thumb Code     0  libinit2.o(.ARM.Collect$$libinit$$00000004)
    __rt_lib_init_rand_1                     0x08000243   Thumb Code     0  libinit2.o(.ARM.Collect$$libinit$$0000000E)
    __rt_lib_init_return                     0x08000243   Thumb Code     0  libinit2.o(.ARM.Collect$$libinit$$00000033)
    __rt_lib_init_signal_1                   0x08000243   Thumb Code     0  libinit2.o(.ARM.Collect$$libinit$$0000001D)
    __rt_lib_init_stdio_1                    0x08000243   Thumb Code     0  libinit2.o(.ARM.Collect$$libinit$$00000025)
    __rt_lib_init_user_alloc_1               0x08000243   Thumb Code     0  libinit2.o(.ARM.Collect$$libinit$$0000000C)
    __rt_lib_shutdown                        0x08000245   Thumb Code     0  libshutdown.o(.ARM.Collect$$libshutdown$$00000000)
    __rt_lib_shutdown_cpp_1                  0x08000247   Thumb Code     0  libshutdown2.o(.ARM.Collect$$libshutdown$$00000002)
    __rt_lib_shutdown_fp_trap_1              0x08000247   Thumb Code     0  libshutdown2.o(.ARM.Collect$$libshutdown$$00000007)
    __rt_lib_shutdown_heap_1                 0x08000247   Thumb Code     0  libshutdown2.o(.ARM.Collect$$libshutdown$$0000000F)
    __rt_lib_shutdown_return                 0x08000247   Thumb Code     0  libshutdown2.o(.ARM.Collect$$libshutdown$$00000010)
    __rt_lib_shutdown_signal_1               0x08000247   Thumb Code     0  libshutdown2.o(.ARM.Collect$$libshutdown$$0000000A)
    __rt_lib_shutdown_stdio_1                0x08000247   Thumb Code     0  libshutdown2.o(.ARM.Collect$$libshutdown$$00000004)
    __rt_lib_shutdown_user_alloc_1           0x08000247   Thumb Code     0  libshutdown2.o(.ARM.Collect$$libshutdown$$0000000C)
    __rt_entry                               0x08000249   Thumb Code     0  __rtentry.o(.ARM.Collect$$rtentry$$00000000)
    __rt_entry_presh_1                       0x08000249   Thumb Code     0  __rtentry2.o(.ARM.Collect$$rtentry$$00000002)
    __rt_entry_sh                            0x08000249   Thumb Code     0  __rtentry4.o(.ARM.Collect$$rtentry$$00000004)
    __rt_entry_li                            0x0800024f   Thumb Code     0  __rtentry2.o(.ARM.Collect$$rtentry$$0000000A)
    __rt_entry_postsh_1                      0x0800024f   Thumb Code     0  __rtentry2.o(.ARM.Collect$$rtentry$$00000009)
    __rt_entry_main                          0x08000253   Thumb Code     0  __rtentry2.o(.ARM.Collect$$rtentry$$0000000D)
    __rt_entry_postli_1                      0x08000253   Thumb Code     0  __rtentry2.o(.ARM.Collect$$rtentry$$0000000C)
    __rt_exit                                0x0800025b   Thumb Code     0  rtexit.o(.ARM.Collect$$rtexit$$00000000)
    __rt_exit_ls                             0x0800025d   Thumb Code     0  rtexit2.o(.ARM.Collect$$rtexit$$00000003)
    __rt_exit_prels_1                        0x0800025d   Thumb Code     0  rtexit2.o(.ARM.Collect$$rtexit$$00000002)
    __rt_exit_exit                           0x08000261   Thumb Code     0  rtexit2.o(.ARM.Collect$$rtexit$$00000004)
    Reset_Handler                            0x08000269   Thumb Code     8  startup_stm32f40_41xxx.o(.text)
    NMI_Handler                              0x08000271   Thumb Code     2  startup_stm32f40_41xxx.o(.text)
    MemManage_Handler                        0x08000275   Thumb Code     2  startup_stm32f40_41xxx.o(.text)
    BusFault_Handler                         0x08000277   Thumb Code     2  startup_stm32f40_41xxx.o(.text)
    UsageFault_Handler                       0x08000279   Thumb Code     2  startup_stm32f40_41xxx.o(.text)
    SVC_Handler                              0x0800027b   Thumb Code     2  startup_stm32f40_41xxx.o(.text)
    DebugMon_Handler                         0x0800027d   Thumb Code     2  startup_stm32f40_41xxx.o(.text)
    SysTick_Handler                          0x08000281   Thumb Code     2  startup_stm32f40_41xxx.o(.text)
    ADC_IRQHandler                           0x08000283   Thumb Code     0  startup_stm32f40_41xxx.o(.text)
    CAN1_RX0_IRQHandler                      0x08000283   Thumb Code     0  startup_stm32f40_41xxx.o(.text)
    CAN1_RX1_IRQHandler                      0x08000283   Thumb Code     0  startup_stm32f40_41xxx.o(.text)
    CAN1_SCE_IRQHandler                      0x08000283   Thumb Code     0  startup_stm32f40_41xxx.o(.text)
    CAN1_TX_IRQHandler                       0x08000283   Thumb Code     0  startup_stm32f40_41xxx.o(.text)
    CAN2_RX0_IRQHandler                      0x08000283   Thumb Code     0  startup_stm32f40_41xxx.o(.text)
    CAN2_RX1_IRQHandler                      0x08000283   Thumb Code     0  startup_stm32f40_41xxx.o(.text)
    CAN2_SCE_IRQHandler                      0x08000283   Thumb Code     0  startup_stm32f40_41xxx.o(.text)
    CAN2_TX_IRQHandler                       0x08000283   Thumb Code     0  startup_stm32f40_41xxx.o(.text)
    CRYP_IRQHandler                          0x08000283   Thumb Code     0  startup_stm32f40_41xxx.o(.text)
    DCMI_IRQHandler                          0x08000283   Thumb Code     0  startup_stm32f40_41xxx.o(.text)
    DMA1_Stream0_IRQHandler                  0x08000283   Thumb Code     0  startup_stm32f40_41xxx.o(.text)
    DMA1_Stream1_IRQHandler                  0x08000283   Thumb Code     0  startup_stm32f40_41xxx.o(.text)
    DMA1_Stream2_IRQHandler                  0x08000283   Thumb Code     0  startup_stm32f40_41xxx.o(.text)
    DMA1_Stream3_IRQHandler                  0x08000283   Thumb Code     0  startup_stm32f40_41xxx.o(.text)
    DMA1_Stream4_IRQHandler                  0x08000283   Thumb Code     0  startup_stm32f40_41xxx.o(.text)
    DMA1_Stream5_IRQHandler                  0x08000283   Thumb Code     0  startup_stm32f40_41xxx.o(.text)
    DMA1_Stream6_IRQHandler                  0x08000283   Thumb Code     0  startup_stm32f40_41xxx.o(.text)
    DMA1_Stream7_IRQHandler                  0x08000283   Thumb Code     0  startup_stm32f40_41xxx.o(.text)
    DMA2_Stream0_IRQHandler                  0x08000283   Thumb Code     0  startup_stm32f40_41xxx.o(.text)
    DMA2_Stream1_IRQHandler                  0x08000283   Thumb Code     0  startup_stm32f40_41xxx.o(.text)
    DMA2_Stream2_IRQHandler                  0x08000283   Thumb Code     0  startup_stm32f40_41xxx.o(.text)
    DMA2_Stream3_IRQHandler                  0x08000283   Thumb Code     0  startup_stm32f40_41xxx.o(.text)
    DMA2_Stream4_IRQHandler                  0x08000283   Thumb Code     0  startup_stm32f40_41xxx.o(.text)
    DMA2_Stream5_IRQHandler                  0x08000283   Thumb Code     0  startup_stm32f40_41xxx.o(.text)
    DMA2_Stream6_IRQHandler                  0x08000283   Thumb Code     0  startup_stm32f40_41xxx.o(.text)
    DMA2_Stream7_IRQHandler                  0x08000283   Thumb Code     0  startup_stm32f40_41xxx.o(.text)
    ETH_IRQHandler                           0x08000283   Thumb Code     0  startup_stm32f40_41xxx.o(.text)
    ETH_WKUP_IRQHandler                      0x08000283   Thumb Code     0  startup_stm32f40_41xxx.o(.text)
    EXTI0_IRQHandler                         0x08000283   Thumb Code     0  startup_stm32f40_41xxx.o(.text)
    EXTI15_10_IRQHandler                     0x08000283   Thumb Code     0  startup_stm32f40_41xxx.o(.text)
    EXTI1_IRQHandler                         0x08000283   Thumb Code     0  startup_stm32f40_41xxx.o(.text)
    EXTI2_IRQHandler                         0x08000283   Thumb Code     0  startup_stm32f40_41xxx.o(.text)
    EXTI3_IRQHandler                         0x08000283   Thumb Code     0  startup_stm32f40_41xxx.o(.text)
    EXTI4_IRQHandler                         0x08000283   Thumb Code     0  startup_stm32f40_41xxx.o(.text)
    EXTI9_5_IRQHandler                       0x08000283   Thumb Code     0  startup_stm32f40_41xxx.o(.text)
    FLASH_IRQHandler                         0x08000283   Thumb Code     0  startup_stm32f40_41xxx.o(.text)
    FPU_IRQHandler                           0x08000283   Thumb Code     0  startup_stm32f40_41xxx.o(.text)
    FSMC_IRQHandler                          0x08000283   Thumb Code     0  startup_stm32f40_41xxx.o(.text)
    HASH_RNG_IRQHandler                      0x08000283   Thumb Code     0  startup_stm32f40_41xxx.o(.text)
    I2C1_ER_IRQHandler                       0x08000283   Thumb Code     0  startup_stm32f40_41xxx.o(.text)
    I2C1_EV_IRQHandler                       0x08000283   Thumb Code     0  startup_stm32f40_41xxx.o(.text)
    I2C2_ER_IRQHandler                       0x08000283   Thumb Code     0  startup_stm32f40_41xxx.o(.text)
    I2C2_EV_IRQHandler                       0x08000283   Thumb Code     0  startup_stm32f40_41xxx.o(.text)
    I2C3_ER_IRQHandler                       0x08000283   Thumb Code     0  startup_stm32f40_41xxx.o(.text)
    I2C3_EV_IRQHandler                       0x08000283   Thumb Code     0  startup_stm32f40_41xxx.o(.text)
    OTG_FS_IRQHandler                        0x08000283   Thumb Code     0  startup_stm32f40_41xxx.o(.text)
    OTG_FS_WKUP_IRQHandler                   0x08000283   Thumb Code     0  startup_stm32f40_41xxx.o(.text)
    OTG_HS_EP1_IN_IRQHandler                 0x08000283   Thumb Code     0  startup_stm32f40_41xxx.o(.text)
    OTG_HS_EP1_OUT_IRQHandler                0x08000283   Thumb Code     0  startup_stm32f40_41xxx.o(.text)
    OTG_HS_IRQHandler                        0x08000283   Thumb Code     0  startup_stm32f40_41xxx.o(.text)
    OTG_HS_WKUP_IRQHandler                   0x08000283   Thumb Code     0  startup_stm32f40_41xxx.o(.text)
    PVD_IRQHandler                           0x08000283   Thumb Code     0  startup_stm32f40_41xxx.o(.text)
    RCC_IRQHandler                           0x08000283   Thumb Code     0  startup_stm32f40_41xxx.o(.text)
    RTC_Alarm_IRQHandler                     0x08000283   Thumb Code     0  startup_stm32f40_41xxx.o(.text)
    RTC_WKUP_IRQHandler                      0x08000283   Thumb Code     0  startup_stm32f40_41xxx.o(.text)
    SDIO_IRQHandler                          0x08000283   Thumb Code     0  startup_stm32f40_41xxx.o(.text)
    SPI1_IRQHandler                          0x08000283   Thumb Code     0  startup_stm32f40_41xxx.o(.text)
    SPI2_IRQHandler                          0x08000283   Thumb Code     0  startup_stm32f40_41xxx.o(.text)
    SPI3_IRQHandler                          0x08000283   Thumb Code     0  startup_stm32f40_41xxx.o(.text)
    TAMP_STAMP_IRQHandler                    0x08000283   Thumb Code     0  startup_stm32f40_41xxx.o(.text)
    TIM1_BRK_TIM9_IRQHandler                 0x08000283   Thumb Code     0  startup_stm32f40_41xxx.o(.text)
    TIM1_CC_IRQHandler                       0x08000283   Thumb Code     0  startup_stm32f40_41xxx.o(.text)
    TIM1_TRG_COM_TIM11_IRQHandler            0x08000283   Thumb Code     0  startup_stm32f40_41xxx.o(.text)
    TIM1_UP_TIM10_IRQHandler                 0x08000283   Thumb Code     0  startup_stm32f40_41xxx.o(.text)
    TIM2_IRQHandler                          0x08000283   Thumb Code     0  startup_stm32f40_41xxx.o(.text)
    TIM3_IRQHandler                          0x08000283   Thumb Code     0  startup_stm32f40_41xxx.o(.text)
    TIM4_IRQHandler                          0x08000283   Thumb Code     0  startup_stm32f40_41xxx.o(.text)
    TIM5_IRQHandler                          0x08000283   Thumb Code     0  startup_stm32f40_41xxx.o(.text)
    TIM6_DAC_IRQHandler                      0x08000283   Thumb Code     0  startup_stm32f40_41xxx.o(.text)
    TIM7_IRQHandler                          0x08000283   Thumb Code     0  startup_stm32f40_41xxx.o(.text)
    TIM8_BRK_TIM12_IRQHandler                0x08000283   Thumb Code     0  startup_stm32f40_41xxx.o(.text)
    TIM8_CC_IRQHandler                       0x08000283   Thumb Code     0  startup_stm32f40_41xxx.o(.text)
    TIM8_TRG_COM_TIM14_IRQHandler            0x08000283   Thumb Code     0  startup_stm32f40_41xxx.o(.text)
    TIM8_UP_TIM13_IRQHandler                 0x08000283   Thumb Code     0  startup_stm32f40_41xxx.o(.text)
    UART4_IRQHandler                         0x08000283   Thumb Code     0  startup_stm32f40_41xxx.o(.text)
    UART5_IRQHandler                         0x08000283   Thumb Code     0  startup_stm32f40_41xxx.o(.text)
    USART6_IRQHandler                        0x08000283   Thumb Code     0  startup_stm32f40_41xxx.o(.text)
    WWDG_IRQHandler                          0x08000283   Thumb Code     0  startup_stm32f40_41xxx.o(.text)
    __user_initial_stackheap                 0x08000285   Thumb Code     0  startup_stm32f40_41xxx.o(.text)
    rt_hw_interrupt_disable                  0x080002a9   Thumb Code     8  context_rvds.o(.text)
    rt_hw_interrupt_enable                   0x080002b1   Thumb Code     6  context_rvds.o(.text)
    rt_hw_context_switch                     0x080002b7   Thumb Code    32  context_rvds.o(.text)
    rt_hw_context_switch_interrupt           0x080002b7   Thumb Code     0  context_rvds.o(.text)
    PendSV_Handler                           0x080002d7   Thumb Code   108  context_rvds.o(.text)
    rt_hw_context_switch_to                  0x08000343   Thumb Code    68  context_rvds.o(.text)
    rt_hw_interrupt_thread_switch            0x08000387   Thumb Code     2  context_rvds.o(.text)
    HardFault_Handler                        0x08000389   Thumb Code    56  context_rvds.o(.text)
    strcpy                                   0x080003dd   Thumb Code    72  strcpy.o(.text)
    strlen                                   0x08000425   Thumb Code    62  strlen.o(.text)
    strncmp                                  0x08000463   Thumb Code   150  strncmp.o(.text)
    strcat                                   0x080004f9   Thumb Code    24  strcat.o(.text)
    __aeabi_memcpy4                          0x08000511   Thumb Code     0  rt_memcpy_w.o(.text)
    __aeabi_memcpy8                          0x08000511   Thumb Code     0  rt_memcpy_w.o(.text)
    __rt_memcpy_w                            0x08000511   Thumb Code   100  rt_memcpy_w.o(.text)
    _memcpy_lastbytes_aligned                0x08000559   Thumb Code     0  rt_memcpy_w.o(.text)
    __aeabi_memclr                           0x08000575   Thumb Code     0  rt_memclr.o(.text)
    __rt_memclr                              0x08000575   Thumb Code    68  rt_memclr.o(.text)
    _memset                                  0x08000579   Thumb Code     0  rt_memclr.o(.text)
    __aeabi_memclr4                          0x080005b9   Thumb Code     0  rt_memclr_w.o(.text)
    __aeabi_memclr8                          0x080005b9   Thumb Code     0  rt_memclr_w.o(.text)
    __rt_memclr_w                            0x080005b9   Thumb Code    78  rt_memclr_w.o(.text)
    _memset_w                                0x080005bd   Thumb Code     0  rt_memclr_w.o(.text)
    strncpy                                  0x08000607   Thumb Code    86  strncpy.o(.text)
    __use_two_region_memory                  0x0800065d   Thumb Code     2  heapauxi.o(.text)
    __rt_heap_escrow$2region                 0x0800065f   Thumb Code     2  heapauxi.o(.text)
    __rt_heap_expand$2region                 0x08000661   Thumb Code     2  heapauxi.o(.text)
    __user_libspace                          0x08000665   Thumb Code     8  libspace.o(.text)
    __user_perproc_libspace                  0x08000665   Thumb Code     0  libspace.o(.text)
    __user_perthread_libspace                0x08000665   Thumb Code     0  libspace.o(.text)
    __user_setup_stackheap                   0x0800066d   Thumb Code    74  sys_stackheap_outer.o(.text)
    exit                                     0x080006b7   Thumb Code    18  exit.o(.text)
    _sys_exit                                0x080006c9   Thumb Code     8  sys_exit.o(.text)
    __I$use$semihosting                      0x080006d5   Thumb Code     0  use_no_semi.o(.text)
    __use_no_semihosting_swi                 0x080006d5   Thumb Code     2  use_no_semi.o(.text)
    __semihosting_library_function           0x080006d7   Thumb Code     0  indicate_semi.o(.text)
    main                                     0x080006d7   Thumb Code    10  components.o(i.$Sub$$main)
    APP_Start                                0x080006e1   Thumb Code    82  main.o(i.APP_Start)
    CD100M_INFO                              0x08000781   Thumb Code    98  app.o(i.CD100M_INFO)
    CD100M_uart_decode                       0x08000805   Thumb Code   460  cd100m.o(i.CD100M_uart_decode)
    GPIO_Init                                0x08000a0d   Thumb Code   120  stm32f4xx_gpio.o(i.GPIO_Init)
    GPIO_PinAFConfig                         0x08000a85   Thumb Code    32  stm32f4xx_gpio.o(i.GPIO_PinAFConfig)
    NVIC_Init                                0x08000aa5   Thumb Code    96  misc.o(i.NVIC_Init)
    NVIC_PriorityGroupConfig                 0x08000b09   Thumb Code    10  misc.o(i.NVIC_PriorityGroupConfig)
    RCC_AHB1PeriphClockCmd                   0x08000b1d   Thumb Code    18  stm32f4xx_rcc.o(i.RCC_AHB1PeriphClockCmd)
    RCC_APB1PeriphClockCmd                   0x08000b35   Thumb Code    18  stm32f4xx_rcc.o(i.RCC_APB1PeriphClockCmd)
    RCC_APB2PeriphClockCmd                   0x08000b4d   Thumb Code    18  stm32f4xx_rcc.o(i.RCC_APB2PeriphClockCmd)
    RCC_GetClocksFreq                        0x08000b65   Thumb Code   132  stm32f4xx_rcc.o(i.RCC_GetClocksFreq)
    SystemInit                               0x08000ca9   Thumb Code    74  system_stm32f4xx.o(i.SystemInit)
    USART1_IRQHandler                        0x08000d05   Thumb Code    34  usart.o(i.USART1_IRQHandler)
    USART2_IRQHandler                        0x08000d2d   Thumb Code   114  usart.o(i.USART2_IRQHandler)
    USART3_IRQHandler                        0x08000dc9   Thumb Code    68  usart.o(i.USART3_IRQHandler)
    USART_ClearITPendingBit                  0x08000e21   Thumb Code    12  stm32f4xx_usart.o(i.USART_ClearITPendingBit)
    USART_Cmd                                0x08000e2d   Thumb Code    20  stm32f4xx_usart.o(i.USART_Cmd)
    USART_GetFlagStatus                      0x08000e41   Thumb Code    14  stm32f4xx_usart.o(i.USART_GetFlagStatus)
    USART_GetITStatus                        0x08000e4f   Thumb Code    62  stm32f4xx_usart.o(i.USART_GetITStatus)
    USART_ITConfig                           0x08000e8d   Thumb Code    48  stm32f4xx_usart.o(i.USART_ITConfig)
    USART_Init                               0x08000ebd   Thumb Code   164  stm32f4xx_usart.o(i.USART_Init)
    USART_ReceiveData                        0x08000f69   Thumb Code     8  stm32f4xx_usart.o(i.USART_ReceiveData)
    USART_SendData                           0x08000f71   Thumb Code     8  stm32f4xx_usart.o(i.USART_SendData)
    __rt_ffs                                 0x08000f79   Thumb Code    64  kservice.o(i.__rt_ffs)
    cmd_free                                 0x08001215   Thumb Code    10  msh.o(i.cmd_free)
    cmd_ps                                   0x0800121f   Thumb Code    10  msh.o(i.cmd_ps)
    delay_ms                                 0x08001229   Thumb Code    34  delay.o(i.delay_ms)
    finsh_get_prompt                         0x08001251   Thumb Code    68  shell.o(i.finsh_get_prompt)
    finsh_set_device                         0x080012c5   Thumb Code   106  shell.o(i.finsh_set_device)
    finsh_set_prompt_mode                    0x08001359   Thumb Code    16  shell.o(i.finsh_set_prompt_mode)
    finsh_system_function_init               0x0800136d   Thumb Code     8  shell.o(i.finsh_system_function_init)
    finsh_system_init                        0x08001379   Thumb Code    90  shell.o(i.finsh_system_init)
    finsh_thread_entry                       0x0800140d   Thumb Code   678  shell.o(i.finsh_thread_entry)
    hello                                    0x08001755   Thumb Code    12  cmd.o(i.hello)
    list                                     0x08001775   Thumb Code    50  cmd.o(i.list)
    list_device                              0x080017d9   Thumb Code   152  cmd.o(i.list_device)
    list_event                               0x080018dd   Thumb Code   182  cmd.o(i.list_event)
    list_mailbox                             0x08001a9d   Thumb Code   198  cmd.o(i.list_mailbox)
    list_mem                                 0x08001bdd   Thumb Code    32  mem.o(i.list_mem)
    list_msgqueue                            0x08001c49   Thumb Code   190  cmd.o(i.list_msgqueue)
    list_mutex                               0x08001d75   Thumb Code   146  cmd.o(i.list_mutex)
    list_sem                                 0x08001e6d   Thumb Code   190  cmd.o(i.list_sem)
    list_thread                              0x08001f8d   Thumb Code   250  cmd.o(i.list_thread)
    list_timer                               0x08002145   Thumb Code   160  cmd.o(i.list_timer)
    $Super$$main                             0x08002285   Thumb Code    60  main.o(i.main)
    main_thread_entry                        0x080022d5   Thumb Code    14  components.o(i.main_thread_entry)
    msh_auto_complete                        0x080023bd   Thumb Code   152  msh.o(i.msh_auto_complete)
    msh_exec                                 0x08002469   Thumb Code    74  msh.o(i.msh_exec)
    msh_help                                 0x080024cd   Thumb Code    58  msh.o(i.msh_help)
    msh_is_used                              0x08002545   Thumb Code     4  msh.o(i.msh_is_used)
    rt_application_init                      0x080027b1   Thumb Code    32  components.o(i.rt_application_init)
    rt_calloc                                0x080027dd   Thumb Code    26  mem.o(i.rt_calloc)
    rt_components_board_init                 0x080027f9   Thumb Code    20  components.o(i.rt_components_board_init)
    rt_components_init                       0x08002815   Thumb Code    20  components.o(i.rt_components_init)
    rt_console_get_device                    0x08002831   Thumb Code     6  kservice.o(i.rt_console_get_device)
    rt_device_close                          0x0800283d   Thumb Code    48  device.o(i.rt_device_close)
    rt_device_find                           0x0800286d   Thumb Code     6  device.o(i.rt_device_find)
    rt_device_open                           0x08002875   Thumb Code   110  device.o(i.rt_device_open)
    rt_device_read                           0x0800291d   Thumb Code    36  device.o(i.rt_device_read)
    rt_device_set_rx_indicate                0x08002941   Thumb Code     6  device.o(i.rt_device_set_rx_indicate)
    rt_device_write                          0x08002947   Thumb Code    36  device.o(i.rt_device_write)
    rt_enter_critical                        0x0800296d   Thumb Code    22  scheduler.o(i.rt_enter_critical)
    rt_exit_critical                         0x08002989   Thumb Code    52  scheduler.o(i.rt_exit_critical)
    rt_free                                  0x080029c1   Thumb Code   112  mem.o(i.rt_free)
    rt_heap_begin_get                        0x08002a85   Thumb Code     4  board.o(i.rt_heap_begin_get)
    rt_heap_end_get                          0x08002a8d   Thumb Code     4  board.o(i.rt_heap_end_get)
    rt_hw_board_init                         0x08002a95   Thumb Code    26  board.o(i.rt_hw_board_init)
    rt_hw_console_getchar                    0x08002aaf   Thumb Code     4  finsh_port.o(i.rt_hw_console_getchar)
    rt_hw_console_output                     0x08002ab5   Thumb Code    72  board.o(i.rt_hw_console_output)
    rt_hw_hard_fault_exception               0x08002b01   Thumb Code   198  cpuport.o(i.rt_hw_hard_fault_exception)
    rt_hw_stack_init                         0x08002d19   Thumb Code    56  cpuport.o(i.rt_hw_stack_init)
    rt_interrupt_get_nest                    0x08002d55   Thumb Code    18  irq.o(i.rt_interrupt_get_nest)
    rt_kprintf                               0x08002dcd   Thumb Code    64  kservice.o(i.rt_kprintf)
    rt_malloc                                0x08002eb1   Thumb Code   232  mem.o(i.rt_malloc)
    rt_mb_create                             0x08002fa1   Thumb Code    72  ipc.o(i.rt_mb_create)
    rt_memmove                               0x08002fe9   Thumb Code    46  kservice.o(i.rt_memmove)
    rt_memset                                0x08003017   Thumb Code    68  kservice.o(i.rt_memset)
    rt_object_allocate                       0x0800305b   Thumb Code    76  object.o(i.rt_object_allocate)
    rt_object_delete                         0x080030a7   Thumb Code    38  object.o(i.rt_object_delete)
    rt_object_detach                         0x080030cd   Thumb Code    32  object.o(i.rt_object_detach)
    rt_object_find                           0x080030ed   Thumb Code    70  object.o(i.rt_object_find)
    rt_object_get_information                0x08003135   Thumb Code    30  object.o(i.rt_object_get_information)
    rt_object_init                           0x08003159   Thumb Code    80  object.o(i.rt_object_init)
    rt_object_is_systemobject                0x080031a9   Thumb Code    14  object.o(i.rt_object_is_systemobject)
    rt_schedule                              0x080031b9   Thumb Code    76  scheduler.o(i.rt_schedule)
    rt_schedule_insert_thread                0x08003211   Thumb Code    70  scheduler.o(i.rt_schedule_insert_thread)
    rt_schedule_remove_thread                0x08003261   Thumb Code    66  scheduler.o(i.rt_schedule_remove_thread)
    rt_sem_create                            0x080032ad   Thumb Code    32  ipc.o(i.rt_sem_create)
    rt_sem_init                              0x080032cd   Thumb Code    36  ipc.o(i.rt_sem_init)
    rt_sem_release                           0x080032f1   Thumb Code    80  ipc.o(i.rt_sem_release)
    rt_sem_take                              0x08003341   Thumb Code   110  ipc.o(i.rt_sem_take)
    rt_set_errno                             0x080033b1   Thumb Code    26  kservice.o(i.rt_set_errno)
    rt_show_version                          0x080033d1   Thumb Code    40  kservice.o(i.rt_show_version)
    rt_strncmp                               0x08003481   Thumb Code    32  kservice.o(i.rt_strncmp)
    rt_strncpy                               0x080034a1   Thumb Code    38  kservice.o(i.rt_strncpy)
    rt_system_heap_init                      0x080034c9   Thumb Code    98  mem.o(i.rt_system_heap_init)
    rt_system_scheduler_init                 0x08003579   Thumb Code    44  scheduler.o(i.rt_system_scheduler_init)
    rt_system_scheduler_start                0x080035ad   Thumb Code    32  scheduler.o(i.rt_system_scheduler_start)
    rt_system_timer_init                     0x080035d5   Thumb Code    18  timer.o(i.rt_system_timer_init)
    rt_system_timer_thread_init              0x080035ed   Thumb Code     2  timer.o(i.rt_system_timer_thread_init)
    rt_thread_create                         0x080035ef   Thumb Code    72  thread.o(i.rt_thread_create)
    rt_thread_exit                           0x08003639   Thumb Code    80  thread.o(i.rt_thread_exit)
    rt_thread_idle_excute                    0x08003699   Thumb Code    68  idle.o(i.rt_thread_idle_excute)
    rt_thread_idle_init                      0x080036e1   Thumb Code    40  idle.o(i.rt_thread_idle_init)
    rt_thread_init                           0x08003719   Thumb Code    48  thread.o(i.rt_thread_init)
    rt_thread_resume                         0x08003749   Thumb Code    60  thread.o(i.rt_thread_resume)
    rt_thread_self                           0x08003785   Thumb Code     6  thread.o(i.rt_thread_self)
    rt_thread_startup                        0x08003791   Thumb Code    40  thread.o(i.rt_thread_startup)
    rt_thread_suspend                        0x080037bd   Thumb Code    66  thread.o(i.rt_thread_suspend)
    rt_thread_timeout                        0x080037ff   Thumb Code    32  thread.o(i.rt_thread_timeout)
    rt_tick_get                              0x08003821   Thumb Code     6  clock.o(i.rt_tick_get)
    rt_timer_control                         0x0800382d   Thumb Code    72  timer.o(i.rt_timer_control)
    rt_timer_detach                          0x08003875   Thumb Code    40  timer.o(i.rt_timer_detach)
    rt_timer_init                            0x0800389d   Thumb Code    40  timer.o(i.rt_timer_init)
    rt_timer_start                           0x080038c5   Thumb Code   140  timer.o(i.rt_timer_start)
    rt_timer_stop                            0x08003955   Thumb Code    46  timer.o(i.rt_timer_stop)
    rt_vsnprintf                             0x08003985   Thumb Code   600  kservice.o(i.rt_vsnprintf)
    rtthread_startup                         0x08003bf5   Thumb Code    42  components.o(i.rtthread_startup)
    uart2_init                               0x08003c79   Thumb Code   140  usart.o(i.uart2_init)
    uart2_send                               0x08003d15   Thumb Code    64  usart.o(i.uart2_send)
    usart_init                               0x08003e39   Thumb Code   140  usart.o(i.usart_init)
    version                                  0x08003ed5   Thumb Code    10  cmd.o(i.version)
    _fp_init                                 0x08003edf   Thumb Code    10  fpinit.o(x$fpl$fpinit)
    __fplib_config_fpu_vfp                   0x08003ee7   Thumb Code     0  fpinit.o(x$fpl$fpinit)
    __fplib_config_pureend_doubles           0x08003ee7   Thumb Code     0  fpinit.o(x$fpl$fpinit)
    __lowest_bit_bitmap                      0x08003f40   Data         256  kservice.o(.constdata)
    __fsym_hello_name                        0x080041e1   Data           6  cmd.o(.rodata.name)
    __fsym_hello_desc                        0x080041e7   Data          16  cmd.o(.rodata.name)
    __fsym_version_name                      0x080041f7   Data           8  cmd.o(.rodata.name)
    __fsym_version_desc                      0x080041ff   Data          35  cmd.o(.rodata.name)
    __fsym___cmd_version_name                0x08004222   Data          14  cmd.o(.rodata.name)
    __fsym___cmd_version_desc                0x08004230   Data          35  cmd.o(.rodata.name)
    __fsym_list_thread_name                  0x08004253   Data          12  cmd.o(.rodata.name)
    __fsym_list_thread_desc                  0x0800425f   Data          12  cmd.o(.rodata.name)
    __fsym___cmd_list_thread_name            0x0800426b   Data          18  cmd.o(.rodata.name)
    __fsym___cmd_list_thread_desc            0x0800427d   Data          12  cmd.o(.rodata.name)
    __fsym_list_sem_name                     0x08004289   Data           9  cmd.o(.rodata.name)
    __fsym_list_sem_desc                     0x08004292   Data          25  cmd.o(.rodata.name)
    __fsym___cmd_list_sem_name               0x080042ab   Data          15  cmd.o(.rodata.name)
    __fsym___cmd_list_sem_desc               0x080042ba   Data          25  cmd.o(.rodata.name)
    __fsym_list_event_name                   0x080042d3   Data          11  cmd.o(.rodata.name)
    __fsym_list_event_desc                   0x080042de   Data          21  cmd.o(.rodata.name)
    __fsym___cmd_list_event_name             0x080042f3   Data          17  cmd.o(.rodata.name)
    __fsym___cmd_list_event_desc             0x08004304   Data          21  cmd.o(.rodata.name)
    __fsym_list_mutex_name                   0x08004319   Data          11  cmd.o(.rodata.name)
    __fsym_list_mutex_desc                   0x08004324   Data          21  cmd.o(.rodata.name)
    __fsym___cmd_list_mutex_name             0x08004339   Data          17  cmd.o(.rodata.name)
    __fsym___cmd_list_mutex_desc             0x0800434a   Data          21  cmd.o(.rodata.name)
    __fsym_list_mailbox_name                 0x0800435f   Data          13  cmd.o(.rodata.name)
    __fsym_list_mailbox_desc                 0x0800436c   Data          24  cmd.o(.rodata.name)
    __fsym___cmd_list_mailbox_name           0x08004384   Data          19  cmd.o(.rodata.name)
    __fsym___cmd_list_mailbox_desc           0x08004397   Data          24  cmd.o(.rodata.name)
    __fsym_list_msgqueue_name                0x080043af   Data          14  cmd.o(.rodata.name)
    __fsym_list_msgqueue_desc                0x080043bd   Data          29  cmd.o(.rodata.name)
    __fsym___cmd_list_msgqueue_name          0x080043da   Data          20  cmd.o(.rodata.name)
    __fsym___cmd_list_msgqueue_desc          0x080043ee   Data          29  cmd.o(.rodata.name)
    __fsym_list_timer_name                   0x0800440b   Data          11  cmd.o(.rodata.name)
    __fsym_list_timer_desc                   0x08004416   Data          21  cmd.o(.rodata.name)
    __fsym___cmd_list_timer_name             0x0800442b   Data          17  cmd.o(.rodata.name)
    __fsym___cmd_list_timer_desc             0x0800443c   Data          21  cmd.o(.rodata.name)
    __fsym_list_device_name                  0x08004451   Data          12  cmd.o(.rodata.name)
    __fsym_list_device_desc                  0x0800445d   Data          22  cmd.o(.rodata.name)
    __fsym___cmd_list_device_name            0x08004473   Data          18  cmd.o(.rodata.name)
    __fsym___cmd_list_device_desc            0x08004485   Data          22  cmd.o(.rodata.name)
    __fsym_list_name                         0x0800449b   Data           5  cmd.o(.rodata.name)
    __fsym_list_desc                         0x080044a0   Data          26  cmd.o(.rodata.name)
    __fsym___cmd_help_name                   0x080044ba   Data          11  msh.o(.rodata.name)
    __fsym___cmd_help_desc                   0x080044c5   Data          22  msh.o(.rodata.name)
    __fsym___cmd_ps_name                     0x080044db   Data           9  msh.o(.rodata.name)
    __fsym___cmd_ps_desc                     0x080044e4   Data          28  msh.o(.rodata.name)
    __fsym___cmd_free_name                   0x08004500   Data          11  msh.o(.rodata.name)
    __fsym___cmd_free_desc                   0x0800450b   Data          37  msh.o(.rodata.name)
    __fsym_list_mem_name                     0x08004530   Data           9  mem.o(.rodata.name)
    __fsym_list_mem_desc                     0x08004539   Data          30  mem.o(.rodata.name)
    __rt_init_rti_start                      0x08004558   Data           4  components.o(.rti_fn.0)
    __rt_init_rti_board_start                0x0800455c   Data           4  components.o(.rti_fn.0.end)
    __rt_init_uart_init                      0x08004560   Data           4  board.o(.rti_fn.1)
    __rt_init_rti_board_end                  0x08004564   Data           4  components.o(.rti_fn.1.end)
    __rt_init_finsh_system_init              0x08004568   Data           4  shell.o(.rti_fn.6)
    __rt_init_rti_end                        0x0800456c   Data           4  components.o(.rti_fn.6.end)
    FSymTab$$Base                            0x08004570   Number         0  cmd.o(FSymTab)
    __fsym_hello                             0x08004570   Data          12  cmd.o(FSymTab)
    __fsym_version                           0x0800457c   Data          12  cmd.o(FSymTab)
    __fsym___cmd_version                     0x08004588   Data          12  cmd.o(FSymTab)
    __fsym_list_thread                       0x08004594   Data          12  cmd.o(FSymTab)
    __fsym___cmd_list_thread                 0x080045a0   Data          12  cmd.o(FSymTab)
    __fsym_list_sem                          0x080045ac   Data          12  cmd.o(FSymTab)
    __fsym___cmd_list_sem                    0x080045b8   Data          12  cmd.o(FSymTab)
    __fsym_list_event                        0x080045c4   Data          12  cmd.o(FSymTab)
    __fsym___cmd_list_event                  0x080045d0   Data          12  cmd.o(FSymTab)
    __fsym_list_mutex                        0x080045dc   Data          12  cmd.o(FSymTab)
    __fsym___cmd_list_mutex                  0x080045e8   Data          12  cmd.o(FSymTab)
    __fsym_list_mailbox                      0x080045f4   Data          12  cmd.o(FSymTab)
    __fsym___cmd_list_mailbox                0x08004600   Data          12  cmd.o(FSymTab)
    __fsym_list_msgqueue                     0x0800460c   Data          12  cmd.o(FSymTab)
    __fsym___cmd_list_msgqueue               0x08004618   Data          12  cmd.o(FSymTab)
    __fsym_list_timer                        0x08004624   Data          12  cmd.o(FSymTab)
    __fsym___cmd_list_timer                  0x08004630   Data          12  cmd.o(FSymTab)
    __fsym_list_device                       0x0800463c   Data          12  cmd.o(FSymTab)
    __fsym___cmd_list_device                 0x08004648   Data          12  cmd.o(FSymTab)
    __fsym_list                              0x08004654   Data          12  cmd.o(FSymTab)
    __fsym___cmd_help                        0x08004660   Data          12  msh.o(FSymTab)
    __fsym___cmd_ps                          0x0800466c   Data          12  msh.o(FSymTab)
    __fsym___cmd_free                        0x08004678   Data          12  msh.o(FSymTab)
    __fsym_list_mem                          0x08004684   Data          12  mem.o(FSymTab)
    FSymTab$$Limit                           0x08004690   Number         0  mem.o(FSymTab)
    Region$$Table$$Base                      0x08004690   Number         0  anon$$obj.o(Region$$Table)
    Region$$Table$$Limit                     0x080046b0   Number         0  anon$$obj.o(Region$$Table)
    start                                    0x20000000   Data           4  main.o(.data)
    BC28_Connect                             0x20000004   Data           1  app.o(.data)
    MQTT_Connect                             0x20000005   Data           1  app.o(.data)
    g_cmd1                                   0x20000008   Data           4  app.o(.data)
    g_cmd2                                   0x2000000c   Data           4  app.o(.data)
    g_cmd3                                   0x20000010   Data           4  app.o(.data)
    BC28_Respond                             0x2000001c   Data           4  app.o(.data)
    CD100M_RECV                              0x20000020   Data           4  app.o(.data)
    g_uart_sta                               0x20000026   Data           1  cd100m.o(.data)
    g_CD100M_paras                           0x200000a2   Data          16  cd100m.o(.data)
    BC28_RX_FLAG                             0x200000b2   Data           1  bc28.o(.data)
    BC28_RX_DATA_LEN                         0x200000b4   Data           2  bc28.o(.data)
    g_mail_data                              0x200000cc   Data           4  usart.o(.data)
    _syscall_table_begin                     0x200000e0   Data           4  shell.o(.data)
    _syscall_table_end                       0x200000e4   Data           4  shell.o(.data)
    _sysvar_table_begin                      0x200000e8   Data           4  shell.o(.data)
    _sysvar_table_end                        0x200000ec   Data           4  shell.o(.data)
    shell                                    0x200000f4   Data           4  shell.o(.data)
    rt_interrupt_from_thread                 0x200000fc   Data           4  cpuport.o(.data)
    rt_interrupt_to_thread                   0x20000100   Data           4  cpuport.o(.data)
    rt_thread_switch_interrupt_flag          0x20000104   Data           4  cpuport.o(.data)
    rt_interrupt_nest                        0x2000010c   Data           1  irq.o(.data)
    rt_current_priority                      0x200001b0   Data           1  scheduler.o(.data)
    rt_current_thread                        0x200001b4   Data           4  scheduler.o(.data)
    rt_thread_ready_priority_group           0x200001b8   Data           4  scheduler.o(.data)
    rt_thread_defunct                        0x200001bc   Data           8  scheduler.o(.data)
    th3_stack                                0x200001d0   Data        1024  app.o(.bss)
    th3                                      0x200005d0   Data         128  app.o(.bss)
    bc28_10ms                                0x20000650   Data          44  drv_bc28.o(.bss)
    g_CD100M_res_info                        0x20000690   Data          28  cd100m.o(.bss)
    g_CD100M_dbg_info                        0x200006ac   Data          19  cd100m.o(.bss)
    BC28_RX_BUF                              0x200006bf   Data         200  bc28.o(.bss)
    rt_thread_priority_table                 0x20000b3c   Data         256  scheduler.o(.bss)
    __libspace_start                         0x2000483c   Data          96  libspace.o(.bss)
    __temporary_stack_top$libspace           0x2000489c   Data           0  libspace.o(.bss)



==============================================================================

Memory Map of the image

  Image Entry point : 0x08000189

  Load Region LR_IROM1 (Base: 0x08000000, Size: 0x00004880, Max: 0x00080000, ABSOLUTE, COMPRESSED[0x00004784])

    Execution Region ER_IROM1 (Exec base: 0x08000000, Load base: 0x08000000, Size: 0x000046b0, Max: 0x00080000, ABSOLUTE)

    Exec Addr    Load Addr    Size         Type   Attr      Idx    E Section Name        Object

    0x08000000   0x08000000   0x00000188   Data   RO         2312    RESET               startup_stm32f40_41xxx.o
    0x08000188   0x08000188   0x00000008   Code   RO         4034  * !!!main             c_w.l(__main.o)
    0x08000190   0x08000190   0x00000034   Code   RO         4338    !!!scatter          c_w.l(__scatter.o)
    0x080001c4   0x080001c4   0x0000005a   Code   RO         4336    !!dczerorl2         c_w.l(__dczerorl2.o)
    0x0800021e   0x0800021e   0x00000002   PAD
    0x08000220   0x08000220   0x0000001c   Code   RO         4340    !!handler_zi        c_w.l(__scatter_zi.o)
    0x0800023c   0x0800023c   0x00000002   Code   RO         4206    .ARM.Collect$$libinit$$00000000  c_w.l(libinit.o)
    0x0800023e   0x0800023e   0x00000004   Code   RO         4207    .ARM.Collect$$libinit$$00000001  c_w.l(libinit2.o)
    0x08000242   0x08000242   0x00000000   Code   RO         4210    .ARM.Collect$$libinit$$00000004  c_w.l(libinit2.o)
    0x08000242   0x08000242   0x00000000   Code   RO         4213    .ARM.Collect$$libinit$$0000000A  c_w.l(libinit2.o)
    0x08000242   0x08000242   0x00000000   Code   RO         4215    .ARM.Collect$$libinit$$0000000C  c_w.l(libinit2.o)
    0x08000242   0x08000242   0x00000000   Code   RO         4217    .ARM.Collect$$libinit$$0000000E  c_w.l(libinit2.o)
    0x08000242   0x08000242   0x00000000   Code   RO         4220    .ARM.Collect$$libinit$$00000011  c_w.l(libinit2.o)
    0x08000242   0x08000242   0x00000000   Code   RO         4222    .ARM.Collect$$libinit$$00000013  c_w.l(libinit2.o)
    0x08000242   0x08000242   0x00000000   Code   RO         4224    .ARM.Collect$$libinit$$00000015  c_w.l(libinit2.o)
    0x08000242   0x08000242   0x00000000   Code   RO         4226    .ARM.Collect$$libinit$$00000017  c_w.l(libinit2.o)
    0x08000242   0x08000242   0x00000000   Code   RO         4228    .ARM.Collect$$libinit$$00000019  c_w.l(libinit2.o)
    0x08000242   0x08000242   0x00000000   Code   RO         4230    .ARM.Collect$$libinit$$0000001B  c_w.l(libinit2.o)
    0x08000242   0x08000242   0x00000000   Code   RO         4232    .ARM.Collect$$libinit$$0000001D  c_w.l(libinit2.o)
    0x08000242   0x08000242   0x00000000   Code   RO         4234    .ARM.Collect$$libinit$$0000001F  c_w.l(libinit2.o)
    0x08000242   0x08000242   0x00000000   Code   RO         4236    .ARM.Collect$$libinit$$00000021  c_w.l(libinit2.o)
    0x08000242   0x08000242   0x00000000   Code   RO         4238    .ARM.Collect$$libinit$$00000023  c_w.l(libinit2.o)
    0x08000242   0x08000242   0x00000000   Code   RO         4240    .ARM.Collect$$libinit$$00000025  c_w.l(libinit2.o)
    0x08000242   0x08000242   0x00000000   Code   RO         4244    .ARM.Collect$$libinit$$0000002C  c_w.l(libinit2.o)
    0x08000242   0x08000242   0x00000000   Code   RO         4246    .ARM.Collect$$libinit$$0000002E  c_w.l(libinit2.o)
    0x08000242   0x08000242   0x00000000   Code   RO         4248    .ARM.Collect$$libinit$$00000030  c_w.l(libinit2.o)
    0x08000242   0x08000242   0x00000000   Code   RO         4250    .ARM.Collect$$libinit$$00000032  c_w.l(libinit2.o)
    0x08000242   0x08000242   0x00000002   Code   RO         4251    .ARM.Collect$$libinit$$00000033  c_w.l(libinit2.o)
    0x08000244   0x08000244   0x00000002   Code   RO         4284    .ARM.Collect$$libshutdown$$00000000  c_w.l(libshutdown.o)
    0x08000246   0x08000246   0x00000000   Code   RO         4295    .ARM.Collect$$libshutdown$$00000002  c_w.l(libshutdown2.o)
    0x08000246   0x08000246   0x00000000   Code   RO         4297    .ARM.Collect$$libshutdown$$00000004  c_w.l(libshutdown2.o)
    0x08000246   0x08000246   0x00000000   Code   RO         4300    .ARM.Collect$$libshutdown$$00000007  c_w.l(libshutdown2.o)
    0x08000246   0x08000246   0x00000000   Code   RO         4303    .ARM.Collect$$libshutdown$$0000000A  c_w.l(libshutdown2.o)
    0x08000246   0x08000246   0x00000000   Code   RO         4305    .ARM.Collect$$libshutdown$$0000000C  c_w.l(libshutdown2.o)
    0x08000246   0x08000246   0x00000000   Code   RO         4308    .ARM.Collect$$libshutdown$$0000000F  c_w.l(libshutdown2.o)
    0x08000246   0x08000246   0x00000002   Code   RO         4309    .ARM.Collect$$libshutdown$$00000010  c_w.l(libshutdown2.o)
    0x08000248   0x08000248   0x00000000   Code   RO         4040    .ARM.Collect$$rtentry$$00000000  c_w.l(__rtentry.o)
    0x08000248   0x08000248   0x00000000   Code   RO         4124    .ARM.Collect$$rtentry$$00000002  c_w.l(__rtentry2.o)
    0x08000248   0x08000248   0x00000006   Code   RO         4136    .ARM.Collect$$rtentry$$00000004  c_w.l(__rtentry4.o)
    0x0800024e   0x0800024e   0x00000000   Code   RO         4126    .ARM.Collect$$rtentry$$00000009  c_w.l(__rtentry2.o)
    0x0800024e   0x0800024e   0x00000004   Code   RO         4127    .ARM.Collect$$rtentry$$0000000A  c_w.l(__rtentry2.o)
    0x08000252   0x08000252   0x00000000   Code   RO         4129    .ARM.Collect$$rtentry$$0000000C  c_w.l(__rtentry2.o)
    0x08000252   0x08000252   0x00000008   Code   RO         4130    .ARM.Collect$$rtentry$$0000000D  c_w.l(__rtentry2.o)
    0x0800025a   0x0800025a   0x00000002   Code   RO         4252    .ARM.Collect$$rtexit$$00000000  c_w.l(rtexit.o)
    0x0800025c   0x0800025c   0x00000000   Code   RO         4262    .ARM.Collect$$rtexit$$00000002  c_w.l(rtexit2.o)
    0x0800025c   0x0800025c   0x00000004   Code   RO         4263    .ARM.Collect$$rtexit$$00000003  c_w.l(rtexit2.o)
    0x08000260   0x08000260   0x00000006   Code   RO         4264    .ARM.Collect$$rtexit$$00000004  c_w.l(rtexit2.o)
    0x08000266   0x08000266   0x00000002   PAD
    0x08000268   0x08000268   0x00000040   Code   RO         2313    .text               startup_stm32f40_41xxx.o
    0x080002a8   0x080002a8   0x00000134   Code   RO         2769    .text               context_rvds.o
    0x080003dc   0x080003dc   0x00000048   Code   RO         4016    .text               c_w.l(strcpy.o)
    0x08000424   0x08000424   0x0000003e   Code   RO         4018    .text               c_w.l(strlen.o)
    0x08000462   0x08000462   0x00000096   Code   RO         4020    .text               c_w.l(strncmp.o)
    0x080004f8   0x080004f8   0x00000018   Code   RO         4022    .text               c_w.l(strcat.o)
    0x08000510   0x08000510   0x00000064   Code   RO         4024    .text               c_w.l(rt_memcpy_w.o)
    0x08000574   0x08000574   0x00000044   Code   RO         4026    .text               c_w.l(rt_memclr.o)
    0x080005b8   0x080005b8   0x0000004e   Code   RO         4028    .text               c_w.l(rt_memclr_w.o)
    0x08000606   0x08000606   0x00000056   Code   RO         4030    .text               c_w.l(strncpy.o)
    0x0800065c   0x0800065c   0x00000006   Code   RO         4032    .text               c_w.l(heapauxi.o)
    0x08000662   0x08000662   0x00000002   PAD
    0x08000664   0x08000664   0x00000008   Code   RO         4190    .text               c_w.l(libspace.o)
    0x0800066c   0x0800066c   0x0000004a   Code   RO         4193    .text               c_w.l(sys_stackheap_outer.o)
    0x080006b6   0x080006b6   0x00000012   Code   RO         4197    .text               c_w.l(exit.o)
    0x080006c8   0x080006c8   0x0000000c   Code   RO         4274    .text               c_w.l(sys_exit.o)
    0x080006d4   0x080006d4   0x00000002   Code   RO         4285    .text               c_w.l(use_no_semi.o)
    0x080006d6   0x080006d6   0x00000000   Code   RO         4287    .text               c_w.l(indicate_semi.o)
    0x080006d6   0x080006d6   0x0000000a   Code   RO         2873    i.$Sub$$main        components.o
    0x080006e0   0x080006e0   0x000000a0   Code   RO            4    i.APP_Start         main.o
    0x08000780   0x08000780   0x00000084   Code   RO          173    i.CD100M_INFO       app.o
    0x08000804   0x08000804   0x00000208   Code   RO          385    i.CD100M_uart_decode  cd100m.o
    0x08000a0c   0x08000a0c   0x00000078   Code   RO         1077    i.GPIO_Init         stm32f4xx_gpio.o
    0x08000a84   0x08000a84   0x00000020   Code   RO         1078    i.GPIO_PinAFConfig  stm32f4xx_gpio.o
    0x08000aa4   0x08000aa4   0x00000064   Code   RO          830    i.NVIC_Init         misc.o
    0x08000b08   0x08000b08   0x00000014   Code   RO          831    i.NVIC_PriorityGroupConfig  misc.o
    0x08000b1c   0x08000b1c   0x00000018   Code   RO         1178    i.RCC_AHB1PeriphClockCmd  stm32f4xx_rcc.o
    0x08000b34   0x08000b34   0x00000018   Code   RO         1187    i.RCC_APB1PeriphClockCmd  stm32f4xx_rcc.o
    0x08000b4c   0x08000b4c   0x00000018   Code   RO         1190    i.RCC_APB2PeriphClockCmd  stm32f4xx_rcc.o
    0x08000b64   0x08000b64   0x00000090   Code   RO         1199    i.RCC_GetClocksFreq  stm32f4xx_rcc.o
    0x08000bf4   0x08000bf4   0x000000b4   Code   RO         2320    i.SetSysClock       system_stm32f4xx.o
    0x08000ca8   0x08000ca8   0x0000005c   Code   RO         2322    i.SystemInit        system_stm32f4xx.o
    0x08000d04   0x08000d04   0x00000028   Code   RO          701    i.USART1_IRQHandler  usart.o
    0x08000d2c   0x08000d2c   0x0000009c   Code   RO          702    i.USART2_IRQHandler  usart.o
    0x08000dc8   0x08000dc8   0x00000058   Code   RO          703    i.USART3_IRQHandler  usart.o
    0x08000e20   0x08000e20   0x0000000c   Code   RO         2122    i.USART_ClearITPendingBit  stm32f4xx_usart.o
    0x08000e2c   0x08000e2c   0x00000014   Code   RO         2125    i.USART_Cmd         stm32f4xx_usart.o
    0x08000e40   0x08000e40   0x0000000e   Code   RO         2128    i.USART_GetFlagStatus  stm32f4xx_usart.o
    0x08000e4e   0x08000e4e   0x0000003e   Code   RO         2129    i.USART_GetITStatus  stm32f4xx_usart.o
    0x08000e8c   0x08000e8c   0x00000030   Code   RO         2131    i.USART_ITConfig    stm32f4xx_usart.o
    0x08000ebc   0x08000ebc   0x000000ac   Code   RO         2132    i.USART_Init        stm32f4xx_usart.o
    0x08000f68   0x08000f68   0x00000008   Code   RO         2139    i.USART_ReceiveData  stm32f4xx_usart.o
    0x08000f70   0x08000f70   0x00000008   Code   RO         2142    i.USART_SendData    stm32f4xx_usart.o
    0x08000f78   0x08000f78   0x00000044   Code   RO         3270    i.__rt_ffs          kservice.o
    0x08000fbc   0x08000fbc   0x000000a0   Code   RO         2608    i._msh_exec_cmd     msh.o
    0x0800105c   0x0800105c   0x00000074   Code   RO         3672    i._rt_thread_init   thread.o
    0x080010d0   0x080010d0   0x00000026   Code   RO         3802    i._rt_timer_init    timer.o
    0x080010f6   0x080010f6   0x00000018   Code   RO         3803    i._rt_timer_remove  timer.o
    0x0800110e   0x0800110e   0x0000001c   Code   RO         3673    i._thread_cleanup_execute  thread.o
    0x0800112a   0x0800112a   0x00000002   PAD
    0x0800112c   0x0800112c   0x000000e8   Code   RO         2773    i.bus_fault_track   cpuport.o
    0x08001214   0x08001214   0x0000000a   Code   RO         2609    i.cmd_free          msh.o
    0x0800121e   0x0800121e   0x0000000a   Code   RO         2610    i.cmd_ps            msh.o
    0x08001228   0x08001228   0x00000028   Code   RO          800    i.delay_ms          delay.o
    0x08001250   0x08001250   0x00000060   Code   RO         2677    i.finsh_get_prompt  shell.o
    0x080012b0   0x080012b0   0x00000014   Code   RO         2679    i.finsh_rx_ind      shell.o
    0x080012c4   0x080012c4   0x00000094   Code   RO         2680    i.finsh_set_device  shell.o
    0x08001358   0x08001358   0x00000014   Code   RO         2683    i.finsh_set_prompt_mode  shell.o
    0x0800136c   0x0800136c   0x0000000c   Code   RO         2684    i.finsh_system_function_init  shell.o
    0x08001378   0x08001378   0x00000094   Code   RO         2685    i.finsh_system_init  shell.o
    0x0800140c   0x0800140c   0x000002d0   Code   RO         2687    i.finsh_thread_entry  shell.o
    0x080016dc   0x080016dc   0x00000078   Code   RO         2774    i.hard_fault_track  cpuport.o
    0x08001754   0x08001754   0x00000020   Code   RO         2448    i.hello             cmd.o
    0x08001774   0x08001774   0x00000064   Code   RO         2449    i.list              cmd.o
    0x080017d8   0x080017d8   0x00000104   Code   RO         2450    i.list_device       cmd.o
    0x080018dc   0x080018dc   0x00000130   Code   RO         2451    i.list_event        cmd.o
    0x08001a0c   0x08001a0c   0x00000024   Code   RO         2452    i.list_find_init    cmd.o
    0x08001a30   0x08001a30   0x0000006a   Code   RO         2453    i.list_get_next     cmd.o
    0x08001a9a   0x08001a9a   0x00000002   PAD
    0x08001a9c   0x08001a9c   0x00000140   Code   RO         2454    i.list_mailbox      cmd.o
    0x08001bdc   0x08001bdc   0x0000006c   Code   RO         3457    i.list_mem          mem.o
    0x08001c48   0x08001c48   0x0000012c   Code   RO         2455    i.list_msgqueue     cmd.o
    0x08001d74   0x08001d74   0x000000f8   Code   RO         2456    i.list_mutex        cmd.o
    0x08001e6c   0x08001e6c   0x00000120   Code   RO         2457    i.list_sem          cmd.o
    0x08001f8c   0x08001f8c   0x000001b8   Code   RO         2458    i.list_thread       cmd.o
    0x08002144   0x08002144   0x00000140   Code   RO         2459    i.list_timer        cmd.o
    0x08002284   0x08002284   0x00000050   Code   RO            5    i.main              main.o
    0x080022d4   0x080022d4   0x0000000e   Code   RO         2874    i.main_thread_entry  components.o
    0x080022e2   0x080022e2   0x00000002   PAD
    0x080022e4   0x080022e4   0x000000d8   Code   RO         2775    i.mem_manage_fault_track  cpuport.o
    0x080023bc   0x080023bc   0x000000ac   Code   RO         2611    i.msh_auto_complete  msh.o
    0x08002468   0x08002468   0x00000064   Code   RO         2612    i.msh_exec          msh.o
    0x080024cc   0x080024cc   0x00000078   Code   RO         2613    i.msh_help          msh.o
    0x08002544   0x08002544   0x00000004   Code   RO         2614    i.msh_is_used       msh.o
    0x08002548   0x08002548   0x000000d0   Code   RO         2615    i.msh_split         msh.o
    0x08002618   0x08002618   0x00000018   Code   RO         2460    i.object_split      cmd.o
    0x08002630   0x08002630   0x00000054   Code   RO         3458    i.plug_holes        mem.o
    0x08002684   0x08002684   0x0000012c   Code   RO         3272    i.print_number      kservice.o
    0x080027b0   0x080027b0   0x0000002c   Code   RO         2875    i.rt_application_init  components.o
    0x080027dc   0x080027dc   0x0000001a   Code   RO         3459    i.rt_calloc         mem.o
    0x080027f6   0x080027f6   0x00000002   PAD
    0x080027f8   0x080027f8   0x0000001c   Code   RO         2876    i.rt_components_board_init  components.o
    0x08002814   0x08002814   0x0000001c   Code   RO         2877    i.rt_components_init  components.o
    0x08002830   0x08002830   0x0000000c   Code   RO         3273    i.rt_console_get_device  kservice.o
    0x0800283c   0x0800283c   0x00000030   Code   RO         2358    i.rt_device_close   device.o
    0x0800286c   0x0800286c   0x00000006   Code   RO         2362    i.rt_device_find    device.o
    0x08002872   0x08002872   0x00000002   PAD
    0x08002874   0x08002874   0x000000a8   Code   RO         2365    i.rt_device_open    device.o
    0x0800291c   0x0800291c   0x00000024   Code   RO         2366    i.rt_device_read    device.o
    0x08002940   0x08002940   0x00000006   Code   RO         2368    i.rt_device_set_rx_indicate  device.o
    0x08002946   0x08002946   0x00000024   Code   RO         2371    i.rt_device_write   device.o
    0x0800296a   0x0800296a   0x00000002   PAD
    0x0800296c   0x0800296c   0x0000001c   Code   RO         3611    i.rt_enter_critical  scheduler.o
    0x08002988   0x08002988   0x00000038   Code   RO         3612    i.rt_exit_critical  scheduler.o
    0x080029c0   0x080029c0   0x000000c4   Code   RO         3460    i.rt_free           mem.o
    0x08002a84   0x08002a84   0x00000008   Code   RO         3907    i.rt_heap_begin_get  board.o
    0x08002a8c   0x08002a8c   0x00000008   Code   RO         3908    i.rt_heap_end_get   board.o
    0x08002a94   0x08002a94   0x0000001a   Code   RO         3909    i.rt_hw_board_init  board.o
    0x08002aae   0x08002aae   0x00000004   Code   RO         3967    i.rt_hw_console_getchar  finsh_port.o
    0x08002ab2   0x08002ab2   0x00000002   PAD
    0x08002ab4   0x08002ab4   0x0000004c   Code   RO         3910    i.rt_hw_console_output  board.o
    0x08002b00   0x08002b00   0x00000218   Code   RO         2779    i.rt_hw_hard_fault_exception  cpuport.o
    0x08002d18   0x08002d18   0x0000003c   Code   RO         2780    i.rt_hw_stack_init  cpuport.o
    0x08002d54   0x08002d54   0x00000018   Code   RO         3244    i.rt_interrupt_get_nest  irq.o
    0x08002d6c   0x08002d6c   0x0000000e   Code   RO         2982    i.rt_ipc_list_resume  ipc.o
    0x08002d7a   0x08002d7a   0x00000050   Code   RO         2984    i.rt_ipc_list_suspend  ipc.o
    0x08002dca   0x08002dca   0x00000002   PAD
    0x08002dcc   0x08002dcc   0x00000048   Code   RO         3278    i.rt_kprintf        kservice.o
    0x08002e14   0x08002e14   0x0000000e   Code   RO         3523    i.rt_list_insert_after  object.o
    0x08002e22   0x08002e22   0x0000000e   Code   RO         3674    i.rt_list_insert_after  thread.o
    0x08002e30   0x08002e30   0x0000000e   Code   RO         3804    i.rt_list_insert_after  timer.o
    0x08002e3e   0x08002e3e   0x0000000e   Code   RO         2985    i.rt_list_insert_before  ipc.o
    0x08002e4c   0x08002e4c   0x0000000e   Code   RO         2461    i.rt_list_isempty   cmd.o
    0x08002e5a   0x08002e5a   0x0000000e   Code   RO         2986    i.rt_list_isempty   ipc.o
    0x08002e68   0x08002e68   0x00000012   Code   RO         2462    i.rt_list_len       cmd.o
    0x08002e7a   0x08002e7a   0x00000012   Code   RO         3524    i.rt_list_remove    object.o
    0x08002e8c   0x08002e8c   0x00000012   Code   RO         3675    i.rt_list_remove    thread.o
    0x08002e9e   0x08002e9e   0x00000012   Code   RO         3806    i.rt_list_remove    timer.o
    0x08002eb0   0x08002eb0   0x000000f0   Code   RO         3461    i.rt_malloc         mem.o
    0x08002fa0   0x08002fa0   0x00000048   Code   RO         2988    i.rt_mb_create      ipc.o
    0x08002fe8   0x08002fe8   0x0000002e   Code   RO         3283    i.rt_memmove        kservice.o
    0x08003016   0x08003016   0x00000044   Code   RO         3284    i.rt_memset         kservice.o
    0x0800305a   0x0800305a   0x0000004c   Code   RO         3525    i.rt_object_allocate  object.o
    0x080030a6   0x080030a6   0x00000026   Code   RO         3526    i.rt_object_delete  object.o
    0x080030cc   0x080030cc   0x00000020   Code   RO         3527    i.rt_object_detach  object.o
    0x080030ec   0x080030ec   0x00000046   Code   RO         3528    i.rt_object_find    object.o
    0x08003132   0x08003132   0x00000002   PAD
    0x08003134   0x08003134   0x00000024   Code   RO         3529    i.rt_object_get_information  object.o
    0x08003158   0x08003158   0x00000050   Code   RO         3533    i.rt_object_init    object.o
    0x080031a8   0x080031a8   0x0000000e   Code   RO         3534    i.rt_object_is_systemobject  object.o
    0x080031b6   0x080031b6   0x00000002   PAD
    0x080031b8   0x080031b8   0x00000058   Code   RO         3613    i.rt_schedule       scheduler.o
    0x08003210   0x08003210   0x00000050   Code   RO         3614    i.rt_schedule_insert_thread  scheduler.o
    0x08003260   0x08003260   0x0000004c   Code   RO         3615    i.rt_schedule_remove_thread  scheduler.o
    0x080032ac   0x080032ac   0x00000020   Code   RO         3012    i.rt_sem_create     ipc.o
    0x080032cc   0x080032cc   0x00000024   Code   RO         3015    i.rt_sem_init       ipc.o
    0x080032f0   0x080032f0   0x00000050   Code   RO         3016    i.rt_sem_release    ipc.o
    0x08003340   0x08003340   0x0000006e   Code   RO         3017    i.rt_sem_take       ipc.o
    0x080033ae   0x080033ae   0x00000002   PAD
    0x080033b0   0x080033b0   0x00000020   Code   RO         3285    i.rt_set_errno      kservice.o
    0x080033d0   0x080033d0   0x000000b0   Code   RO         3286    i.rt_show_version   kservice.o
    0x08003480   0x08003480   0x00000020   Code   RO         3293    i.rt_strncmp        kservice.o
    0x080034a0   0x080034a0   0x00000026   Code   RO         3294    i.rt_strncpy        kservice.o
    0x080034c6   0x080034c6   0x00000002   PAD
    0x080034c8   0x080034c8   0x000000b0   Code   RO         3464    i.rt_system_heap_init  mem.o
    0x08003578   0x08003578   0x00000034   Code   RO         3616    i.rt_system_scheduler_init  scheduler.o
    0x080035ac   0x080035ac   0x00000028   Code   RO         3617    i.rt_system_scheduler_start  scheduler.o
    0x080035d4   0x080035d4   0x00000018   Code   RO         3807    i.rt_system_timer_init  timer.o
    0x080035ec   0x080035ec   0x00000002   Code   RO         3808    i.rt_system_timer_thread_init  timer.o
    0x080035ee   0x080035ee   0x00000048   Code   RO         3677    i.rt_thread_create  thread.o
    0x08003636   0x08003636   0x00000002   PAD
    0x08003638   0x08003638   0x00000058   Code   RO         3682    i.rt_thread_exit    thread.o
    0x08003690   0x08003690   0x00000006   Code   RO         2940    i.rt_thread_idle_entry  idle.o
    0x08003696   0x08003696   0x00000002   PAD
    0x08003698   0x08003698   0x00000048   Code   RO         2941    i.rt_thread_idle_excute  idle.o
    0x080036e0   0x080036e0   0x00000038   Code   RO         2943    i.rt_thread_idle_init  idle.o
    0x08003718   0x08003718   0x00000030   Code   RO         3684    i.rt_thread_init    thread.o
    0x08003748   0x08003748   0x0000003c   Code   RO         3686    i.rt_thread_resume  thread.o
    0x08003784   0x08003784   0x0000000c   Code   RO         3687    i.rt_thread_self    thread.o
    0x08003790   0x08003790   0x0000002c   Code   RO         3689    i.rt_thread_startup  thread.o
    0x080037bc   0x080037bc   0x00000042   Code   RO         3690    i.rt_thread_suspend  thread.o
    0x080037fe   0x080037fe   0x00000020   Code   RO         3691    i.rt_thread_timeout  thread.o
    0x0800381e   0x0800381e   0x00000002   PAD
    0x08003820   0x08003820   0x0000000c   Code   RO         2837    i.rt_tick_get       clock.o
    0x0800382c   0x0800382c   0x00000048   Code   RO         3810    i.rt_timer_control  timer.o
    0x08003874   0x08003874   0x00000028   Code   RO         3813    i.rt_timer_detach   timer.o
    0x0800389c   0x0800389c   0x00000028   Code   RO         3814    i.rt_timer_init     timer.o
    0x080038c4   0x080038c4   0x00000090   Code   RO         3816    i.rt_timer_start    timer.o
    0x08003954   0x08003954   0x0000002e   Code   RO         3817    i.rt_timer_stop     timer.o
    0x08003982   0x08003982   0x00000002   PAD
    0x08003984   0x08003984   0x00000260   Code   RO         3297    i.rt_vsnprintf      kservice.o
    0x08003be4   0x08003be4   0x00000004   Code   RO         2878    i.rti_board_end     components.o
    0x08003be8   0x08003be8   0x00000004   Code   RO         2879    i.rti_board_start   components.o
    0x08003bec   0x08003bec   0x00000004   Code   RO         2880    i.rti_end           components.o
    0x08003bf0   0x08003bf0   0x00000004   Code   RO         2881    i.rti_start         components.o
    0x08003bf4   0x08003bf4   0x0000002a   Code   RO         2882    i.rtthread_startup  components.o
    0x08003c1e   0x08003c1e   0x00000002   PAD
    0x08003c20   0x08003c20   0x00000030   Code   RO         2463    i.show_wait_queue   cmd.o
    0x08003c50   0x08003c50   0x00000028   Code   RO         3299    i.skip_atoi         kservice.o
    0x08003c78   0x08003c78   0x0000009c   Code   RO          705    i.uart2_init        usart.o
    0x08003d14   0x08003d14   0x00000044   Code   RO          706    i.uart2_send        usart.o
    0x08003d58   0x08003d58   0x0000000e   Code   RO         3913    i.uart_init         board.o
    0x08003d66   0x08003d66   0x00000002   PAD
    0x08003d68   0x08003d68   0x000000d0   Code   RO         2781    i.usage_fault_track  cpuport.o
    0x08003e38   0x08003e38   0x0000009c   Code   RO          708    i.usart_init        usart.o
    0x08003ed4   0x08003ed4   0x0000000a   Code   RO         2464    i.version           cmd.o
    0x08003ede   0x08003ede   0x0000000a   Code   RO         4259    x$fpl$fpinit        fz_wm.l(fpinit.o)
    0x08003ee8   0x08003ee8   0x00000058   Data   RO         2465    .constdata          cmd.o
    0x08003f40   0x08003f40   0x00000122   Data   RO         3301    .constdata          kservice.o
    0x08004062   0x08004062   0x00000002   PAD
    0x08004064   0x08004064   0x0000017d   Data   RO         2466    .conststring        cmd.o
    0x080041e1   0x080041e1   0x00000006   Data   RO         2467    .rodata.name        cmd.o
    0x080041e7   0x080041e7   0x00000010   Data   RO         2468    .rodata.name        cmd.o
    0x080041f7   0x080041f7   0x00000008   Data   RO         2469    .rodata.name        cmd.o
    0x080041ff   0x080041ff   0x00000023   Data   RO         2470    .rodata.name        cmd.o
    0x08004222   0x08004222   0x0000000e   Data   RO         2471    .rodata.name        cmd.o
    0x08004230   0x08004230   0x00000023   Data   RO         2472    .rodata.name        cmd.o
    0x08004253   0x08004253   0x0000000c   Data   RO         2473    .rodata.name        cmd.o
    0x0800425f   0x0800425f   0x0000000c   Data   RO         2474    .rodata.name        cmd.o
    0x0800426b   0x0800426b   0x00000012   Data   RO         2475    .rodata.name        cmd.o
    0x0800427d   0x0800427d   0x0000000c   Data   RO         2476    .rodata.name        cmd.o
    0x08004289   0x08004289   0x00000009   Data   RO         2477    .rodata.name        cmd.o
    0x08004292   0x08004292   0x00000019   Data   RO         2478    .rodata.name        cmd.o
    0x080042ab   0x080042ab   0x0000000f   Data   RO         2479    .rodata.name        cmd.o
    0x080042ba   0x080042ba   0x00000019   Data   RO         2480    .rodata.name        cmd.o
    0x080042d3   0x080042d3   0x0000000b   Data   RO         2481    .rodata.name        cmd.o
    0x080042de   0x080042de   0x00000015   Data   RO         2482    .rodata.name        cmd.o
    0x080042f3   0x080042f3   0x00000011   Data   RO         2483    .rodata.name        cmd.o
    0x08004304   0x08004304   0x00000015   Data   RO         2484    .rodata.name        cmd.o
    0x08004319   0x08004319   0x0000000b   Data   RO         2485    .rodata.name        cmd.o
    0x08004324   0x08004324   0x00000015   Data   RO         2486    .rodata.name        cmd.o
    0x08004339   0x08004339   0x00000011   Data   RO         2487    .rodata.name        cmd.o
    0x0800434a   0x0800434a   0x00000015   Data   RO         2488    .rodata.name        cmd.o
    0x0800435f   0x0800435f   0x0000000d   Data   RO         2489    .rodata.name        cmd.o
    0x0800436c   0x0800436c   0x00000018   Data   RO         2490    .rodata.name        cmd.o
    0x08004384   0x08004384   0x00000013   Data   RO         2491    .rodata.name        cmd.o
    0x08004397   0x08004397   0x00000018   Data   RO         2492    .rodata.name        cmd.o
    0x080043af   0x080043af   0x0000000e   Data   RO         2493    .rodata.name        cmd.o
    0x080043bd   0x080043bd   0x0000001d   Data   RO         2494    .rodata.name        cmd.o
    0x080043da   0x080043da   0x00000014   Data   RO         2495    .rodata.name        cmd.o
    0x080043ee   0x080043ee   0x0000001d   Data   RO         2496    .rodata.name        cmd.o
    0x0800440b   0x0800440b   0x0000000b   Data   RO         2497    .rodata.name        cmd.o
    0x08004416   0x08004416   0x00000015   Data   RO         2498    .rodata.name        cmd.o
    0x0800442b   0x0800442b   0x00000011   Data   RO         2499    .rodata.name        cmd.o
    0x0800443c   0x0800443c   0x00000015   Data   RO         2500    .rodata.name        cmd.o
    0x08004451   0x08004451   0x0000000c   Data   RO         2501    .rodata.name        cmd.o
    0x0800445d   0x0800445d   0x00000016   Data   RO         2502    .rodata.name        cmd.o
    0x08004473   0x08004473   0x00000012   Data   RO         2503    .rodata.name        cmd.o
    0x08004485   0x08004485   0x00000016   Data   RO         2504    .rodata.name        cmd.o
    0x0800449b   0x0800449b   0x00000005   Data   RO         2505    .rodata.name        cmd.o
    0x080044a0   0x080044a0   0x0000001a   Data   RO         2506    .rodata.name        cmd.o
    0x080044ba   0x080044ba   0x0000000b   Data   RO         2616    .rodata.name        msh.o
    0x080044c5   0x080044c5   0x00000016   Data   RO         2617    .rodata.name        msh.o
    0x080044db   0x080044db   0x00000009   Data   RO         2618    .rodata.name        msh.o
    0x080044e4   0x080044e4   0x0000001c   Data   RO         2619    .rodata.name        msh.o
    0x08004500   0x08004500   0x0000000b   Data   RO         2620    .rodata.name        msh.o
    0x0800450b   0x0800450b   0x00000025   Data   RO         2621    .rodata.name        msh.o
    0x08004530   0x08004530   0x00000009   Data   RO         3467    .rodata.name        mem.o
    0x08004539   0x08004539   0x0000001e   Data   RO         3468    .rodata.name        mem.o
    0x08004557   0x08004557   0x00000001   PAD
    0x08004558   0x08004558   0x00000004   Data   RO         2883    .rti_fn.0           components.o
    0x0800455c   0x0800455c   0x00000004   Data   RO         2884    .rti_fn.0.end       components.o
    0x08004560   0x08004560   0x00000004   Data   RO         3915    .rti_fn.1           board.o
    0x08004564   0x08004564   0x00000004   Data   RO         2885    .rti_fn.1.end       components.o
    0x08004568   0x08004568   0x00000004   Data   RO         2690    .rti_fn.6           shell.o
    0x0800456c   0x0800456c   0x00000004   Data   RO         2886    .rti_fn.6.end       components.o
    0x08004570   0x08004570   0x000000f0   Data   RO         2507    FSymTab             cmd.o
    0x08004660   0x08004660   0x00000024   Data   RO         2622    FSymTab             msh.o
    0x08004684   0x08004684   0x0000000c   Data   RO         3469    FSymTab             mem.o
    0x08004690   0x08004690   0x00000020   Data   RO         4334    Region$$Table       anon$$obj.o


    Execution Region RW_IRAM1 (Exec base: 0x20000000, Load base: 0x080046b0, Size: 0x00004ea0, Max: 0x00020000, ABSOLUTE, COMPRESSED[0x000000d4])

    Exec Addr    Load Addr    Size         Type   Attr      Idx    E Section Name        Object

    0x20000000   COMPRESSED   0x00000004   Data   RW            6    .data               main.o
    0x20000004   COMPRESSED   0x00000015   Data   RW          183    .data               app.o
    0x20000019   COMPRESSED   0x00000003   PAD
    0x2000001c   COMPRESSED   0x00000004   Data   RW          184    .data               app.o
    0x20000020   COMPRESSED   0x00000004   Data   RW          185    .data               app.o
    0x20000024   COMPRESSED   0x0000007e   Data   RW          389    .data               cd100m.o
    0x200000a2   COMPRESSED   0x00000010   Data   RW          390    .data               cd100m.o
    0x200000b2   COMPRESSED   0x00000001   Data   RW          624    .data               bc28.o
    0x200000b3   COMPRESSED   0x00000001   PAD
    0x200000b4   COMPRESSED   0x00000002   Data   RW          625    .data               bc28.o
    0x200000b6   COMPRESSED   0x00000002   PAD
    0x200000b8   COMPRESSED   0x00000014   Data   RW          710    .data               usart.o
    0x200000cc   COMPRESSED   0x00000004   Data   RW          711    .data               usart.o
    0x200000d0   COMPRESSED   0x00000010   Data   RW         1230    .data               stm32f4xx_rcc.o
    0x200000e0   COMPRESSED   0x00000018   Data   RW         2689    .data               shell.o
    0x200000f8   COMPRESSED   0x00000004   Data   RW         2782    .data               cpuport.o
    0x200000fc   COMPRESSED   0x00000004   Data   RW         2783    .data               cpuport.o
    0x20000100   COMPRESSED   0x00000004   Data   RW         2784    .data               cpuport.o
    0x20000104   COMPRESSED   0x00000004   Data   RW         2785    .data               cpuport.o
    0x20000108   COMPRESSED   0x00000004   Data   RW         2840    .data               clock.o
    0x2000010c   COMPRESSED   0x00000001   Data   RW         3246    .data               irq.o
    0x2000010d   COMPRESSED   0x00000003   PAD
    0x20000110   COMPRESSED   0x00000008   Data   RW         3302    .data               kservice.o
    0x20000118   COMPRESSED   0x00000018   Data   RW         3466    .data               mem.o
    0x20000130   COMPRESSED   0x00000080   Data   RW         3536    .data               object.o
    0x200001b0   COMPRESSED   0x00000014   Data   RW         3619    .data               scheduler.o
    0x200001c4   COMPRESSED   0x0000000c   Data   RW         3818    .data               timer.o
    0x200001d0        -       0x00000400   Zero   RW          178    .bss                app.o
    0x200005d0        -       0x00000080   Zero   RW          181    .bss                app.o
    0x20000650        -       0x0000002c   Zero   RW          236    .bss                drv_bc28.o
    0x2000067c        -       0x00000030   Zero   RW          387    .bss                cd100m.o
    0x200006ac        -       0x00000013   Zero   RW          388    .bss                cd100m.o
    0x200006bf        -       0x000000c8   Zero   RW          623    .bss                bc28.o
    0x20000787   COMPRESSED   0x00000001   PAD
    0x20000788        -       0x00000010   Zero   RW          709    .bss                usart.o
    0x20000798        -       0x00000101   Zero   RW         2688    .bss                shell.o
    0x20000899   COMPRESSED   0x00000003   PAD
    0x2000089c        -       0x00000180   Zero   RW         2944    .bss                idle.o
    0x20000a1c        -       0x00000100   Zero   RW         3300    .bss                kservice.o
    0x20000b1c        -       0x00000020   Zero   RW         3465    .bss                mem.o
    0x20000b3c        -       0x00000100   Zero   RW         3618    .bss                scheduler.o
    0x20000c3c        -       0x00003c00   Zero   RW         3914    .bss                board.o
    0x2000483c        -       0x00000060   Zero   RW         4191    .bss                c_w.l(libspace.o)
    0x2000489c   COMPRESSED   0x00000004   PAD
    0x200048a0        -       0x00000200   Zero   RW         2311    HEAP                startup_stm32f40_41xxx.o
    0x20004aa0        -       0x00000400   Zero   RW         2310    STACK               startup_stm32f40_41xxx.o


==============================================================================

Image component sizes


      Code (inc. data)   RO Data    RW Data    ZI Data      Debug   Object Name

       132         34          0         29       1152       2170   app.o
         0          0          0          3        200        636   bc28.o
       132         12          4          0      15360       3018   board.o
       520         60          0        142         67       4777   cd100m.o
        12          6          0          4          0        670   clock.o
      2868       1098       1438          0          0      22069   cmd.o
       182         28         16          0          0       6210   components.o
       308         28          0          0          0        872   context_rvds.o
      1372        734          0         16          0       6694   cpuport.o
        40          6          0          0          0        511   delay.o
       300         58          0          0          0       4975   device.o
         0          0          0          0         44        225   drv_bc28.o
         4          0          0          0          0        484   finsh_port.o
       134         20          0          0        384       5090   idle.o
       452          0          0          0          0       9756   ipc.o
        24          6          0          1          0       1164   irq.o
      1492        174        290          8        256      13067   kservice.o
       240         98          0          4          0     290021   main.o
       830        250         51         24         32       5495   mem.o
       120         14          0          0          0       1803   misc.o
       784        164        154          0          0       9100   msh.o
       378          6          0        128          0       9553   object.o
       420         58          0         20        256       8474   scheduler.o
      1164        184          4         24        257      11251   shell.o
        64         26        392          0       1536        840   startup_stm32f40_41xxx.o
       152          0          0          0          0       2023   stm32f4xx_gpio.o
       216         30          0         16          0       5107   stm32f4xx_rcc.o
       344          8          0          0          0       6923   stm32f4xx_usart.o
       272         36          0          0          0       1589   system_stm32f4xx.o
       598         26          0          0          0      11068   thread.o
       462         16          0         12          0      10655   timer.o
       664        104          0         24         16       4561   usart.o

    ----------------------------------------------------------------------
     14716       3284       2384        464      19564     460851   Object Totals
         0          0         32          0          0          0   (incl. Generated)
        36          0          3          9          4          0   (incl. Padding)

    ----------------------------------------------------------------------

      Code (inc. data)   RO Data    RW Data    ZI Data      Debug   Library Member Name

        90          0          0          0          0          0   __dczerorl2.o
         8          0          0          0          0         68   __main.o
         0          0          0          0          0          0   __rtentry.o
        12          0          0          0          0          0   __rtentry2.o
         6          0          0          0          0          0   __rtentry4.o
        52          8          0          0          0          0   __scatter.o
        28          0          0          0          0          0   __scatter_zi.o
        18          0          0          0          0         80   exit.o
         6          0          0          0          0        152   heapauxi.o
         0          0          0          0          0          0   indicate_semi.o
         2          0          0          0          0          0   libinit.o
         6          0          0          0          0          0   libinit2.o
         2          0          0          0          0          0   libshutdown.o
         2          0          0          0          0          0   libshutdown2.o
         8          4          0          0         96         68   libspace.o
        68          0          0          0          0         68   rt_memclr.o
        78          0          0          0          0         80   rt_memclr_w.o
       100          0          0          0          0         80   rt_memcpy_w.o
         2          0          0          0          0          0   rtexit.o
        10          0          0          0          0          0   rtexit2.o
        24          0          0          0          0         68   strcat.o
        72          0          0          0          0         80   strcpy.o
        62          0          0          0          0         76   strlen.o
       150          0          0          0          0         80   strncmp.o
        86          0          0          0          0         76   strncpy.o
        12          4          0          0          0         68   sys_exit.o
        74          0          0          0          0         80   sys_stackheap_outer.o
         2          0          0          0          0         68   use_no_semi.o
        10          0          0          0          0        116   fpinit.o

    ----------------------------------------------------------------------
       996         16          0          0        100       1308   Library Totals
         6          0          0          0          4          0   (incl. Padding)

    ----------------------------------------------------------------------

      Code (inc. data)   RO Data    RW Data    ZI Data      Debug   Library Name

       980         16          0          0         96       1192   c_w.l
        10          0          0          0          0        116   fz_wm.l

    ----------------------------------------------------------------------
       996         16          0          0        100       1308   Library Totals

    ----------------------------------------------------------------------

==============================================================================


      Code (inc. data)   RO Data    RW Data    ZI Data      Debug   

     15712       3300       2384        464      19664     446187   Grand Totals
     15712       3300       2384        212      19664     446187   ELF Image Totals (compressed)
     15712       3300       2384        212          0          0   ROM Totals

==============================================================================

    Total RO  Size (Code + RO Data)                18096 (  17.67kB)
    Total RW  Size (RW Data + ZI Data)             20128 (  19.66kB)
    Total ROM Size (Code + RO Data + RW Data)      18308 (  17.88kB)

==============================================================================

